EXPORTS
    VWM @1 DATA
    _Unwind_Backtrace @2
    _Unwind_DeleteException @3
    _Unwind_FindEnclosingFunction @4
    _Unwind_Find_FDE @5
    _Unwind_ForcedUnwind @6
    _Unwind_GetCFA @7
    _Unwind_GetDataRelBase @8
    _Unwind_GetGR @9
    _Unwind_GetIP @10
    _Unwind_GetIPInfo @11
    _Unwind_GetLanguageSpecificData @12
    _Unwind_GetRegionStart @13
    _Unwind_GetTextRelBase @14
    _Unwind_RaiseException @15
    _Unwind_Resume @16
    _Unwind_Resume_or_Rethrow @17
    _Unwind_SetGR @18
    _Unwind_SetIP @19
    _Z10RWX_ThreadPv@4 @20
    _Z10addLuaPageNSt7__cxx1112basic_stringIcSt11char_traitsIcESaIcEEES4_ @21
    _Z11addFilePageNSt7__cxx1112basic_stringIcSt11char_traitsIcESaIcEEES4_j @22
    _Z11addMPA_PageNSt7__cxx1112basic_stringIcSt11char_traitsIcESaIcEEE @23
    _Z11addMetaPageNSt7__cxx1112basic_stringIcSt11char_traitsIcESaIcEEEjS4_Pc @24
    _Z11destroyPageNSt7__cxx1112basic_stringIcSt11char_traitsIcESaIcEEE @25
    _Z11memoryPagesB5cxx11 @26 DATA
    _Z11splitByteRWNSt7__cxx1112basic_stringIcSt11char_traitsIcESaIcEEEbmmcf @27
    _Z12SetPrivilegePvPKci @28
    _Z12addMultiPageNSt7__cxx1112basic_stringIcSt11char_traitsIcESaIcEEEjSt6vectorIPS4_SaIS6_EE @29
    _Z12memorySpacesB5cxx11 @30 DATA
    _Z13addLoggedPageNSt7__cxx1112basic_stringIcSt11char_traitsIcESaIcEEES4_S4_ @31
    _Z14addVirtualPageNSt7__cxx1112basic_stringIcSt11char_traitsIcESaIcEEEj @32
    _Z16IsMarkedToDeleteRSt10unique_ptrI14pageVisualizerSt14default_deleteIS0_EE @33
    _Z17getMemoryPageListB5cxx11v @34
    _Z17writeMemToContextNSt7__cxx1112basic_stringIcSt11char_traitsIcESaIcEEEmmPh @35
    _Z18getMemorySpaceListB5cxx11v @36
    _Z18readMemFromContextNSt7__cxx1112basic_stringIcSt11char_traitsIcESaIcEEEmmPh @37
    _Z19addInterprocessPageNSt7__cxx1112basic_stringIcSt11char_traitsIcESaIcEEEjS4_Pc @38
    _Z19createMemoryContextNSt7__cxx1112basic_stringIcSt11char_traitsIcESaIcEEE @39
    _Z20destroyMemoryContextNSt7__cxx1112basic_stringIcSt11char_traitsIcESaIcEEE @40
    _Z21linkPageToMemorySpaceNSt7__cxx1112basic_stringIcSt11char_traitsIcESaIcEEES4_ @41
    _Z21lua_handle_page_errorP9lua_Statei @42
    _Z24cstr_createMemoryContextPKc @43
    _Z29PageDisplayWindowWorkerThreadPv@4 @44
    _Z6printfPKcz @45
    _Z7makeRWXv @46
    _Z8HSVtoRGB5hsv_tP5rgb_t @47
    _ZN10loggedPage5_sizeEv @48
    _ZN10loggedPage7readMemEmPhm @49
    _ZN10loggedPage8_contentEv @50
    _ZN10loggedPage8_is_freeEv @51
    _ZN10loggedPage8readByteEm @52
    _ZN10loggedPage8writeMemEmPhm @53
    _ZN10loggedPage9writeByteEmh @54
    _ZN10loggedPageC1ENSt7__cxx1112basic_stringIcSt11char_traitsIcESaIcEEESt10shared_ptrI12addressSpaceE @55
    _ZN10loggedPageC2ENSt7__cxx1112basic_stringIcSt11char_traitsIcESaIcEEESt10shared_ptrI12addressSpaceE @56
    _ZN10loggedPageD0Ev @57
    _ZN10loggedPageD1Ev @58
    _ZN10loggedPageD2Ev @59
    _ZN11virtualPage5_sizeEv @60
    _ZN11virtualPage7readMemEmPhm @61
    _ZN11virtualPage8_contentEv @62
    _ZN11virtualPage8readByteEm @63
    _ZN11virtualPage8writeMemEmPhm @64
    _ZN11virtualPage9writeByteEmh @65
    _ZN11virtualPageC1Ej @66
    _ZN11virtualPageC1Ev @67
    _ZN11virtualPageC2Ej @68
    _ZN11virtualPageC2Ev @69
    _ZN11virtualPageD0Ev @70
    _ZN11virtualPageD1Ev @71
    _ZN11virtualPageD2Ev @72
    _ZN12addressSpace5_sizeEv @73
    _ZN12addressSpace7readMemEmPhm @74
    _ZN12addressSpace8_contentEv @75
    _ZN12addressSpace8readByteEm @76
    _ZN12addressSpace8writeMemEmPhm @77
    _ZN12addressSpace9writeByteEmh @78
    _ZN12addressSpaceC1Ev @79
    _ZN12addressSpaceC2Ev @80
    _ZN12addressSpaceD0Ev @81
    _ZN12addressSpaceD1Ev @82
    _ZN12addressSpaceD2Ev @83
    _ZN12callbackPage16cleanupAndUnlinkEv @84
    _ZN12callbackPage5_sizeEv @85
    _ZN12callbackPage7readMemEmPhm @86
    _ZN12callbackPage8_contentEv @87
    _ZN12callbackPage8_is_freeEv @88
    _ZN12callbackPage8readByteEm @89
    _ZN12callbackPage8writeMemEmPhm @90
    _ZN12callbackPage9writeByteEmh @91
    _ZN12callbackPageC1EP12addressSpacePFvP18virtualMemorySpaceS1_mPhmE @92
    _ZN12callbackPageC1EP12addressSpacePFvP18virtualMemorySpaceS1_mPhmES3_S1_j @93
    _ZN12callbackPageC2EP12addressSpacePFvP18virtualMemorySpaceS1_mPhmE @94
    _ZN12callbackPageC2EP12addressSpacePFvP18virtualMemorySpaceS1_mPhmES3_S1_j @95
    _ZN12callbackPageD0Ev @96
    _ZN12callbackPageD1Ev @97
    _ZN12callbackPageD2Ev @98
    _ZN14applicationMem13attachProcessEm @99
    _ZN14applicationMem14dettachProcessEPv @100
    _ZN14applicationMem16cleanupAndUnlinkEv @101
    _ZN14applicationMem5_sizeEv @102
    _ZN14applicationMem7readMemEmPhm @103
    _ZN14applicationMem8_contentEv @104
    _ZN14applicationMem8_is_freeEv @105
    _ZN14applicationMem8readByteEm @106
    _ZN14applicationMem8writeMemEmPhm @107
    _ZN14applicationMem9writeByteEmh @108
    _ZN14applicationMemC1EmjPc @109
    _ZN14applicationMemC1Ev @110
    _ZN14applicationMemC2EmjPc @111
    _ZN14applicationMemC2Ev @112
    _ZN14applicationMemD0Ev @113
    _ZN14applicationMemD1Ev @114
    _ZN14applicationMemD2Ev @115
    _ZN14pageVisualizer10WindowProcEP6HWND__jjl@16 @116
    _ZN14pageVisualizer12EnableOpenGLEPP5HDC__PP7HGLRC__ @117
    _ZN14pageVisualizer13DisableOpenGLEv @118
    _ZN14pageVisualizer13InitPointlistEv @119
    _ZN14pageVisualizer9VisualizeEv @120
    _ZN14pageVisualizerC1ESt10shared_ptrI12addressSpaceE @121
    _ZN14pageVisualizerC2ESt10shared_ptrI12addressSpaceE @122
    _ZN14pageVisualizerD1Ev @123
    _ZN14pageVisualizerD2Ev @124
    _ZN15memorySpacePage16cleanupAndUnlinkEv @125
    _ZN15memorySpacePage5_sizeEv @126
    _ZN15memorySpacePage7readMemEmPhm @127
    _ZN15memorySpacePage8_contentEv @128
    _ZN15memorySpacePage8_is_freeEv @129
    _ZN15memorySpacePage8linkToVMEP18virtualMemorySpacemj @130
    _ZN15memorySpacePage8readByteEm @131
    _ZN15memorySpacePage8writeMemEmPhm @132
    _ZN15memorySpacePage9writeByteEmh @133
    _ZN15memorySpacePageC1EP12addressSpacej @134
    _ZN15memorySpacePageC1EP18virtualMemorySpacePcj @135
    _ZN15memorySpacePageC1EP18virtualMemorySpacemj @136
    _ZN15memorySpacePageC1Ev @137
    _ZN15memorySpacePageC2EP12addressSpacej @138
    _ZN15memorySpacePageC2EP18virtualMemorySpacePcj @139
    _ZN15memorySpacePageC2EP18virtualMemorySpacemj @140
    _ZN15memorySpacePageC2Ev @141
    _ZN15memorySpacePageD0Ev @142
    _ZN15memorySpacePageD1Ev @143
    _ZN15memorySpacePageD2Ev @144
    _ZN17systemDataManagerC1Ev @145
    _ZN17systemDataManagerC2Ev @146
    _ZN17systemDataManagerD1Ev @147
    _ZN17systemDataManagerD2Ev @148
    _ZN18memoryPageAccessor12changeAccessEm @149
    _ZN18memoryPageAccessor7committEv @150
    _ZN18memoryPageAccessorC1EP17systemDataManager @151
    _ZN18memoryPageAccessorC2EP17systemDataManager @152
    _ZN18memoryPageAccessorD1Ev @153
    _ZN18memoryPageAccessorD2Ev @154
    _ZN18virtualMemorySpace15_getAddressPageEmm @155
    _ZN18virtualMemorySpace15addAddressSpaceESt10shared_ptrI12addressSpaceE @156
    _ZN18virtualMemorySpace15isAddressInPageEmi @157
    _ZN18virtualMemorySpace18removeAddressSpaceEi @158
    _ZN18virtualMemorySpace19RW_Mem_From_Page_NoEmbmPhm @159
    _ZN18virtualMemorySpace22pageCountAndRecalcSizeEv @160
    _ZN18virtualMemorySpace6RW_MemEbmPhm @161
    _ZN18virtualMemorySpace7readMemEmPhm @162
    _ZN18virtualMemorySpace8writeMemEmPhm @163
    _ZN18virtualMemorySpaceC1Ei @164
    _ZN18virtualMemorySpaceC1Ev @165
    _ZN18virtualMemorySpaceC2Ei @166
    _ZN18virtualMemorySpaceC2Ev @167
    _ZN18virtualMemorySpaceD1Ev @168
    _ZN18virtualMemorySpaceD2Ev @169
    _ZN23VisualizerWindowManager13addVisualizerESt10shared_ptrI12addressSpaceE @170
    _ZN23VisualizerWindowManager9cleanListEv @171
    _ZN23VisualizerWindowManagerC1Ev @172
    _ZN23VisualizerWindowManagerC2Ev @173
    _ZN23VisualizerWindowManagerD1Ev @174
    _ZN23VisualizerWindowManagerD2Ev @175
    _ZN7luaPage16cleanupAndUnlinkEv @176
    _ZN7luaPage5_sizeEv @177
    _ZN7luaPage7readMemEmPhm @178
    _ZN7luaPage8_contentEv @179
    _ZN7luaPage8_is_freeEv @180
    _ZN7luaPage8readByteEm @181
    _ZN7luaPage8writeMemEmPhm @182
    _ZN7luaPage9writeByteEmh @183
    _ZN7luaPageC1EP9lua_State @184
    _ZN7luaPageC1EP9lua_StateNSt7__cxx1112basic_stringIcSt11char_traitsIcESaIcEEE @185
    _ZN7luaPageC2EP9lua_State @186
    _ZN7luaPageC2EP9lua_StateNSt7__cxx1112basic_stringIcSt11char_traitsIcESaIcEEE @187
    _ZN7luaPageD0Ev @188
    _ZN7luaPageD1Ev @189
    _ZN7luaPageD2Ev @190
    _ZN8MPA_page5_sizeEv @191
    _ZN8MPA_page7readMemEmPhm @192
    _ZN8MPA_page8_contentEv @193
    _ZN8MPA_page8_is_freeEv @194
    _ZN8MPA_page8readByteEm @195
    _ZN8MPA_page8writeMemEmPhm @196
    _ZN8MPA_page9writeByteEmh @197
    _ZN8MPA_pageC1EP17systemDataManager @198
    _ZN8MPA_pageC1EP18memoryPageAccessor @199
    _ZN8MPA_pageC1Ev @200
    _ZN8MPA_pageC2EP17systemDataManager @201
    _ZN8MPA_pageC2EP18memoryPageAccessor @202
    _ZN8MPA_pageC2Ev @203
    _ZN8MPA_pageD0Ev @204
    _ZN8MPA_pageD1Ev @205
    _ZN8MPA_pageD2Ev @206
    _ZN8filePage10FMopenFileEv @207
    _ZN8filePage11FMcloseFileEv @208
    _ZN8filePage5_sizeEv @209
    _ZN8filePage7RW_fileEbmPhm @210
    _ZN8filePage7readMemEmPhm @211
    _ZN8filePage8_contentEv @212
    _ZN8filePage8_is_freeEv @213
    _ZN8filePage8readByteEm @214
    _ZN8filePage8writeMemEmPhm @215
    _ZN8filePage9writeByteEmh @216
    _ZN8filePageC1ENSt7__cxx1112basic_stringIcSt11char_traitsIcESaIcEEEj @217
    _ZN8filePageC1EP12addressSpacej @218
    _ZN8filePageC1Ev @219
    _ZN8filePageC2ENSt7__cxx1112basic_stringIcSt11char_traitsIcESaIcEEEj @220
    _ZN8filePageC2EP12addressSpacej @221
    _ZN8filePageC2Ev @222
    _ZN8filePageD0Ev @223
    _ZN8filePageD1Ev @224
    _ZN9__gnu_cxx13new_allocatorI10loggedPageE7destroyIS1_EEvPT_ @225
    _ZN9__gnu_cxx13new_allocatorI10loggedPageE9constructIS1_JRNSt7__cxx1112basic_stringIcSt11char_traitsIcESaIcEEERSt10shared_ptrI12addressSpaceEEEEvPT_DpOT0_ @226
    _ZN9__gnu_cxx13new_allocatorI10loggedPageEC2ERKS2_ @227
    _ZN9__gnu_cxx13new_allocatorI10loggedPageEC2Ev @228
    _ZN9__gnu_cxx13new_allocatorI10loggedPageED2Ev @229
    _ZN9__gnu_cxx13new_allocatorI11virtualPageE7destroyIS1_EEvPT_ @230
    _ZN9__gnu_cxx13new_allocatorI11virtualPageE9constructIS1_JjEEEvPT_DpOT0_ @231
    _ZN9__gnu_cxx13new_allocatorI11virtualPageEC2ERKS2_ @232
    _ZN9__gnu_cxx13new_allocatorI11virtualPageEC2Ev @233
    _ZN9__gnu_cxx13new_allocatorI11virtualPageED2Ev @234
    _ZN9__gnu_cxx13new_allocatorI14applicationMemE7destroyIS1_EEvPT_ @235
    _ZN9__gnu_cxx13new_allocatorI14applicationMemE9constructIS1_JRmRjRPcEEEvPT_DpOT0_ @236
    _ZN9__gnu_cxx13new_allocatorI14applicationMemEC2ERKS2_ @237
    _ZN9__gnu_cxx13new_allocatorI14applicationMemEC2Ev @238
    _ZN9__gnu_cxx13new_allocatorI14applicationMemED2Ev @239
    _ZN9__gnu_cxx13new_allocatorI15memorySpacePageE7destroyIS1_EEvPT_ @240
    _ZN9__gnu_cxx13new_allocatorI15memorySpacePageE9constructIS1_JRP18virtualMemorySpaceRPcjEEEvPT_DpOT0_ @241
    _ZN9__gnu_cxx13new_allocatorI15memorySpacePageEC2ERKS2_ @242
    _ZN9__gnu_cxx13new_allocatorI15memorySpacePageEC2Ev @243
    _ZN9__gnu_cxx13new_allocatorI15memorySpacePageED2Ev @244
    _ZN9__gnu_cxx13new_allocatorI7luaPageE7destroyIS1_EEvPT_ @245
    _ZN9__gnu_cxx13new_allocatorI7luaPageE9constructIS1_JRP9lua_StateRNSt7__cxx1112basic_stringIcSt11char_traitsIcESaIcEEEEEEvPT_DpOT0_ @246
    _ZN9__gnu_cxx13new_allocatorI7luaPageEC2ERKS2_ @247
    _ZN9__gnu_cxx13new_allocatorI7luaPageEC2Ev @248
    _ZN9__gnu_cxx13new_allocatorI7luaPageED2Ev @249
    _ZN9__gnu_cxx13new_allocatorI8MPA_pageE7destroyIS1_EEvPT_ @250
    _ZN9__gnu_cxx13new_allocatorI8MPA_pageE9constructIS1_JEEEvPT_DpOT0_ @251
    _ZN9__gnu_cxx13new_allocatorI8MPA_pageEC2ERKS2_ @252
    _ZN9__gnu_cxx13new_allocatorI8MPA_pageEC2Ev @253
    _ZN9__gnu_cxx13new_allocatorI8MPA_pageED2Ev @254
    _ZN9__gnu_cxx13new_allocatorI8filePageE7destroyIS1_EEvPT_ @255
    _ZN9__gnu_cxx13new_allocatorI8filePageE9constructIS1_JRNSt7__cxx1112basic_stringIcSt11char_traitsIcESaIcEEERjEEEvPT_DpOT0_ @256
    _ZN9__gnu_cxx13new_allocatorI8filePageEC2ERKS2_ @257
    _ZN9__gnu_cxx13new_allocatorI8filePageEC2Ev @258
    _ZN9__gnu_cxx13new_allocatorI8filePageED2Ev @259
    _ZN9__gnu_cxx13new_allocatorI8quadcordE10deallocateEPS1_j @260
    _ZN9__gnu_cxx13new_allocatorI8quadcordE7destroyIS1_EEvPT_ @261
    _ZN9__gnu_cxx13new_allocatorI8quadcordE8allocateEjPKv @262
    _ZN9__gnu_cxx13new_allocatorI8quadcordE9constructIS1_JRKS1_EEEvPT_DpOT0_ @263
    _ZN9__gnu_cxx13new_allocatorI8quadcordEC2Ev @264
    _ZN9__gnu_cxx13new_allocatorI8quadcordED2Ev @265
    _ZN9__gnu_cxx13new_allocatorI9multiPageE7destroyIS1_EEvPT_ @266
    _ZN9__gnu_cxx13new_allocatorI9multiPageE9constructIS1_JEEEvPT_DpOT0_ @267
    _ZN9__gnu_cxx13new_allocatorI9multiPageEC2ERKS2_ @268
    _ZN9__gnu_cxx13new_allocatorI9multiPageEC2Ev @269
    _ZN9__gnu_cxx13new_allocatorI9multiPageED2Ev @270
    _ZN9__gnu_cxx13new_allocatorINSt8__detail10_Hash_nodeISt4pairIKNSt7__cxx1112basic_stringIcSt11char_traitsIcESaIcEEEP18virtualMemorySpaceELb1EEEE10deallocateEPSE_j @271
    _ZN9__gnu_cxx13new_allocatorINSt8__detail10_Hash_nodeISt4pairIKNSt7__cxx1112basic_stringIcSt11char_traitsIcESaIcEEEP18virtualMemorySpaceELb1EEEE7destroyISD_EEvPT_ @272
    _ZN9__gnu_cxx13new_allocatorINSt8__detail10_Hash_nodeISt4pairIKNSt7__cxx1112basic_stringIcSt11char_traitsIcESaIcEEEP18virtualMemorySpaceELb1EEEE8allocateEjPKv @273
    _ZN9__gnu_cxx13new_allocatorINSt8__detail10_Hash_nodeISt4pairIKNSt7__cxx1112basic_stringIcSt11char_traitsIcESaIcEEEP18virtualMemorySpaceELb1EEEE9constructISD_JRS3_IS9_SC_EEEEvPT_DpOT0_ @274
    _ZN9__gnu_cxx13new_allocatorINSt8__detail10_Hash_nodeISt4pairIKNSt7__cxx1112basic_stringIcSt11char_traitsIcESaIcEEEP18virtualMemorySpaceELb1EEEEC2Ev @275
    _ZN9__gnu_cxx13new_allocatorINSt8__detail10_Hash_nodeISt4pairIKNSt7__cxx1112basic_stringIcSt11char_traitsIcESaIcEEEP18virtualMemorySpaceELb1EEEED2Ev @276
    _ZN9__gnu_cxx13new_allocatorINSt8__detail10_Hash_nodeISt4pairIKNSt7__cxx1112basic_stringIcSt11char_traitsIcESaIcEEESt10shared_ptrI12addressSpaceEELb1EEEE10deallocateEPSF_j @277
    _ZN9__gnu_cxx13new_allocatorINSt8__detail10_Hash_nodeISt4pairIKNSt7__cxx1112basic_stringIcSt11char_traitsIcESaIcEEESt10shared_ptrI12addressSpaceEELb1EEEE7destroyISE_EEvPT_ @278
    _ZN9__gnu_cxx13new_allocatorINSt8__detail10_Hash_nodeISt4pairIKNSt7__cxx1112basic_stringIcSt11char_traitsIcESaIcEEESt10shared_ptrI12addressSpaceEELb1EEEE8allocateEjPKv @279
    _ZN9__gnu_cxx13new_allocatorINSt8__detail10_Hash_nodeISt4pairIKNSt7__cxx1112basic_stringIcSt11char_traitsIcESaIcEEESt10shared_ptrI12addressSpaceEELb1EEEE9constructISE_JRS3_IS9_SD_EEEEvPT_DpOT0_ @280
    _ZN9__gnu_cxx13new_allocatorINSt8__detail10_Hash_nodeISt4pairIKNSt7__cxx1112basic_stringIcSt11char_traitsIcESaIcEEESt10shared_ptrI12addressSpaceEELb1EEEEC2Ev @281
    _ZN9__gnu_cxx13new_allocatorINSt8__detail10_Hash_nodeISt4pairIKNSt7__cxx1112basic_stringIcSt11char_traitsIcESaIcEEESt10shared_ptrI12addressSpaceEELb1EEEED2Ev @282
    _ZN9__gnu_cxx13new_allocatorIP18memoryPageAccessorE10deallocateEPS2_j @283
    _ZN9__gnu_cxx13new_allocatorIP18memoryPageAccessorEC2Ev @284
    _ZN9__gnu_cxx13new_allocatorIP18memoryPageAccessorED2Ev @285
    _ZN9__gnu_cxx13new_allocatorIPNSt7__cxx1112basic_stringIcSt11char_traitsIcESaIcEEEE10deallocateEPS7_j @286
    _ZN9__gnu_cxx13new_allocatorIPNSt7__cxx1112basic_stringIcSt11char_traitsIcESaIcEEEE7destroyIS7_EEvPT_ @287
    _ZN9__gnu_cxx13new_allocatorIPNSt7__cxx1112basic_stringIcSt11char_traitsIcESaIcEEEE8allocateEjPKv @288
    _ZN9__gnu_cxx13new_allocatorIPNSt7__cxx1112basic_stringIcSt11char_traitsIcESaIcEEEE9constructIS7_JS7_EEEvPT_DpOT0_ @289
    _ZN9__gnu_cxx13new_allocatorIPNSt7__cxx1112basic_stringIcSt11char_traitsIcESaIcEEEEC2ERKS8_ @290
    _ZN9__gnu_cxx13new_allocatorIPNSt7__cxx1112basic_stringIcSt11char_traitsIcESaIcEEEEC2Ev @291
    _ZN9__gnu_cxx13new_allocatorIPNSt7__cxx1112basic_stringIcSt11char_traitsIcESaIcEEEED2Ev @292
    _ZN9__gnu_cxx13new_allocatorIPNSt8__detail15_Hash_node_baseEE10deallocateEPS3_j @293
    _ZN9__gnu_cxx13new_allocatorIPNSt8__detail15_Hash_node_baseEE8allocateEjPKv @294
    _ZN9__gnu_cxx13new_allocatorIPNSt8__detail15_Hash_node_baseEEC2Ev @295
    _ZN9__gnu_cxx13new_allocatorIPNSt8__detail15_Hash_node_baseEED2Ev @296
    _ZN9__gnu_cxx13new_allocatorISt10shared_ptrI12addressSpaceEE10deallocateEPS3_j @297
    _ZN9__gnu_cxx13new_allocatorISt10shared_ptrI12addressSpaceEE7destroyIS3_EEvPT_ @298
    _ZN9__gnu_cxx13new_allocatorISt10shared_ptrI12addressSpaceEE8allocateEjPKv @299
    _ZN9__gnu_cxx13new_allocatorISt10shared_ptrI12addressSpaceEE9constructIS3_JRKS3_EEEvPT_DpOT0_ @300
    _ZN9__gnu_cxx13new_allocatorISt10shared_ptrI12addressSpaceEEC2Ev @301
    _ZN9__gnu_cxx13new_allocatorISt10shared_ptrI12addressSpaceEED2Ev @302
    _ZN9__gnu_cxx13new_allocatorISt10unique_ptrI14pageVisualizerSt14default_deleteIS2_EEE10deallocateEPS5_j @303
    _ZN9__gnu_cxx13new_allocatorISt10unique_ptrI14pageVisualizerSt14default_deleteIS2_EEE7destroyIS5_EEvPT_ @304
    _ZN9__gnu_cxx13new_allocatorISt10unique_ptrI14pageVisualizerSt14default_deleteIS2_EEE8allocateEjPKv @305
    _ZN9__gnu_cxx13new_allocatorISt10unique_ptrI14pageVisualizerSt14default_deleteIS2_EEE9constructIS5_JS5_EEEvPT_DpOT0_ @306
    _ZN9__gnu_cxx13new_allocatorISt10unique_ptrI14pageVisualizerSt14default_deleteIS2_EEEC2Ev @307
    _ZN9__gnu_cxx13new_allocatorISt10unique_ptrI14pageVisualizerSt14default_deleteIS2_EEED2Ev @308
    _ZN9__gnu_cxx13new_allocatorISt23_Sp_counted_ptr_inplaceI10loggedPageSaIS2_ELNS_12_Lock_policyE2EEE10deallocateEPS5_j @309
    _ZN9__gnu_cxx13new_allocatorISt23_Sp_counted_ptr_inplaceI10loggedPageSaIS2_ELNS_12_Lock_policyE2EEE8allocateEjPKv @310
    _ZN9__gnu_cxx13new_allocatorISt23_Sp_counted_ptr_inplaceI10loggedPageSaIS2_ELNS_12_Lock_policyE2EEEC2Ev @311
    _ZN9__gnu_cxx13new_allocatorISt23_Sp_counted_ptr_inplaceI10loggedPageSaIS2_ELNS_12_Lock_policyE2EEED2Ev @312
    _ZN9__gnu_cxx13new_allocatorISt23_Sp_counted_ptr_inplaceI11virtualPageSaIS2_ELNS_12_Lock_policyE2EEE10deallocateEPS5_j @313
    _ZN9__gnu_cxx13new_allocatorISt23_Sp_counted_ptr_inplaceI11virtualPageSaIS2_ELNS_12_Lock_policyE2EEE8allocateEjPKv @314
    _ZN9__gnu_cxx13new_allocatorISt23_Sp_counted_ptr_inplaceI11virtualPageSaIS2_ELNS_12_Lock_policyE2EEEC2Ev @315
    _ZN9__gnu_cxx13new_allocatorISt23_Sp_counted_ptr_inplaceI11virtualPageSaIS2_ELNS_12_Lock_policyE2EEED2Ev @316
    _ZN9__gnu_cxx13new_allocatorISt23_Sp_counted_ptr_inplaceI14applicationMemSaIS2_ELNS_12_Lock_policyE2EEE10deallocateEPS5_j @317
    _ZN9__gnu_cxx13new_allocatorISt23_Sp_counted_ptr_inplaceI14applicationMemSaIS2_ELNS_12_Lock_policyE2EEE8allocateEjPKv @318
    _ZN9__gnu_cxx13new_allocatorISt23_Sp_counted_ptr_inplaceI14applicationMemSaIS2_ELNS_12_Lock_policyE2EEEC2Ev @319
    _ZN9__gnu_cxx13new_allocatorISt23_Sp_counted_ptr_inplaceI14applicationMemSaIS2_ELNS_12_Lock_policyE2EEED2Ev @320
    _ZN9__gnu_cxx13new_allocatorISt23_Sp_counted_ptr_inplaceI15memorySpacePageSaIS2_ELNS_12_Lock_policyE2EEE10deallocateEPS5_j @321
    _ZN9__gnu_cxx13new_allocatorISt23_Sp_counted_ptr_inplaceI15memorySpacePageSaIS2_ELNS_12_Lock_policyE2EEE8allocateEjPKv @322
    _ZN9__gnu_cxx13new_allocatorISt23_Sp_counted_ptr_inplaceI15memorySpacePageSaIS2_ELNS_12_Lock_policyE2EEEC2Ev @323
    _ZN9__gnu_cxx13new_allocatorISt23_Sp_counted_ptr_inplaceI15memorySpacePageSaIS2_ELNS_12_Lock_policyE2EEED2Ev @324
    _ZN9__gnu_cxx13new_allocatorISt23_Sp_counted_ptr_inplaceI7luaPageSaIS2_ELNS_12_Lock_policyE2EEE10deallocateEPS5_j @325
    _ZN9__gnu_cxx13new_allocatorISt23_Sp_counted_ptr_inplaceI7luaPageSaIS2_ELNS_12_Lock_policyE2EEE8allocateEjPKv @326
    _ZN9__gnu_cxx13new_allocatorISt23_Sp_counted_ptr_inplaceI7luaPageSaIS2_ELNS_12_Lock_policyE2EEEC2Ev @327
    _ZN9__gnu_cxx13new_allocatorISt23_Sp_counted_ptr_inplaceI7luaPageSaIS2_ELNS_12_Lock_policyE2EEED2Ev @328
    _ZN9__gnu_cxx13new_allocatorISt23_Sp_counted_ptr_inplaceI8MPA_pageSaIS2_ELNS_12_Lock_policyE2EEE10deallocateEPS5_j @329
    _ZN9__gnu_cxx13new_allocatorISt23_Sp_counted_ptr_inplaceI8MPA_pageSaIS2_ELNS_12_Lock_policyE2EEE8allocateEjPKv @330
    _ZN9__gnu_cxx13new_allocatorISt23_Sp_counted_ptr_inplaceI8MPA_pageSaIS2_ELNS_12_Lock_policyE2EEEC2Ev @331
    _ZN9__gnu_cxx13new_allocatorISt23_Sp_counted_ptr_inplaceI8MPA_pageSaIS2_ELNS_12_Lock_policyE2EEED2Ev @332
    _ZN9__gnu_cxx13new_allocatorISt23_Sp_counted_ptr_inplaceI8filePageSaIS2_ELNS_12_Lock_policyE2EEE10deallocateEPS5_j @333
    _ZN9__gnu_cxx13new_allocatorISt23_Sp_counted_ptr_inplaceI8filePageSaIS2_ELNS_12_Lock_policyE2EEE8allocateEjPKv @334
    _ZN9__gnu_cxx13new_allocatorISt23_Sp_counted_ptr_inplaceI8filePageSaIS2_ELNS_12_Lock_policyE2EEEC2Ev @335
    _ZN9__gnu_cxx13new_allocatorISt23_Sp_counted_ptr_inplaceI8filePageSaIS2_ELNS_12_Lock_policyE2EEED2Ev @336
    _ZN9__gnu_cxx13new_allocatorISt23_Sp_counted_ptr_inplaceI9multiPageSaIS2_ELNS_12_Lock_policyE2EEE10deallocateEPS5_j @337
    _ZN9__gnu_cxx13new_allocatorISt23_Sp_counted_ptr_inplaceI9multiPageSaIS2_ELNS_12_Lock_policyE2EEE8allocateEjPKv @338
    _ZN9__gnu_cxx13new_allocatorISt23_Sp_counted_ptr_inplaceI9multiPageSaIS2_ELNS_12_Lock_policyE2EEEC2Ev @339
    _ZN9__gnu_cxx13new_allocatorISt23_Sp_counted_ptr_inplaceI9multiPageSaIS2_ELNS_12_Lock_policyE2EEED2Ev @340
    _ZN9__gnu_cxx13new_allocatorImE10deallocateEPmj @341
    _ZN9__gnu_cxx13new_allocatorImE7destroyImEEvPT_ @342
    _ZN9__gnu_cxx13new_allocatorImE8allocateEjPKv @343
    _ZN9__gnu_cxx13new_allocatorImE9constructImJmEEEvPT_DpOT0_ @344
    _ZN9__gnu_cxx13new_allocatorImEC2Ev @345
    _ZN9__gnu_cxx13new_allocatorImED2Ev @346
    _ZN9__gnu_cxx14__alloc_traitsISaIPNSt7__cxx1112basic_stringIcSt11char_traitsIcESaIcEEEES7_E17_S_select_on_copyERKS8_ @347
    _ZN9__gnu_cxx16__aligned_bufferI10loggedPageE6_M_ptrEv @348
    _ZN9__gnu_cxx16__aligned_bufferI10loggedPageE7_M_addrEv @349
    _ZN9__gnu_cxx16__aligned_bufferI11virtualPageE6_M_ptrEv @350
    _ZN9__gnu_cxx16__aligned_bufferI11virtualPageE7_M_addrEv @351
    _ZN9__gnu_cxx16__aligned_bufferI14applicationMemE6_M_ptrEv @352
    _ZN9__gnu_cxx16__aligned_bufferI14applicationMemE7_M_addrEv @353
    _ZN9__gnu_cxx16__aligned_bufferI15memorySpacePageE6_M_ptrEv @354
    _ZN9__gnu_cxx16__aligned_bufferI15memorySpacePageE7_M_addrEv @355
    _ZN9__gnu_cxx16__aligned_bufferI7luaPageE6_M_ptrEv @356
    _ZN9__gnu_cxx16__aligned_bufferI7luaPageE7_M_addrEv @357
    _ZN9__gnu_cxx16__aligned_bufferI8MPA_pageE6_M_ptrEv @358
    _ZN9__gnu_cxx16__aligned_bufferI8MPA_pageE7_M_addrEv @359
    _ZN9__gnu_cxx16__aligned_bufferI8filePageE6_M_ptrEv @360
    _ZN9__gnu_cxx16__aligned_bufferI8filePageE7_M_addrEv @361
    _ZN9__gnu_cxx16__aligned_bufferI9multiPageE6_M_ptrEv @362
    _ZN9__gnu_cxx16__aligned_bufferI9multiPageE7_M_addrEv @363
    _ZN9__gnu_cxx16__aligned_bufferISt4pairIKNSt7__cxx1112basic_stringIcSt11char_traitsIcESaIcEEEP18virtualMemorySpaceEE6_M_ptrEv @364
    _ZN9__gnu_cxx16__aligned_bufferISt4pairIKNSt7__cxx1112basic_stringIcSt11char_traitsIcESaIcEEEP18virtualMemorySpaceEE7_M_addrEv @365
    _ZN9__gnu_cxx16__aligned_bufferISt4pairIKNSt7__cxx1112basic_stringIcSt11char_traitsIcESaIcEEESt10shared_ptrI12addressSpaceEEE6_M_ptrEv @366
    _ZN9__gnu_cxx16__aligned_bufferISt4pairIKNSt7__cxx1112basic_stringIcSt11char_traitsIcESaIcEEESt10shared_ptrI12addressSpaceEEE7_M_addrEv @367
    _ZN9__gnu_cxx17__normal_iteratorIP8quadcordSt6vectorIS1_SaIS1_EEEC1ERKS2_ @368
    _ZN9__gnu_cxx17__normal_iteratorIP8quadcordSt6vectorIS1_SaIS1_EEEppEv @369
    _ZN9__gnu_cxx17__normal_iteratorIPKPNSt7__cxx1112basic_stringIcSt11char_traitsIcESaIcEEESt6vectorIS7_SaIS7_EEEC1ERKS9_ @370
    _ZN9__gnu_cxx17__normal_iteratorIPKPNSt7__cxx1112basic_stringIcSt11char_traitsIcESaIcEEESt6vectorIS7_SaIS7_EEEC1IPS7_EERKNS0_IT_NS_11__enable_ifIXsrSt10__are_sameISG_SF_E7__valueESC_E6__typeEEE @371
    _ZN9__gnu_cxx17__normal_iteratorIPKSt10shared_ptrI12addressSpaceESt6vectorIS3_SaIS3_EEEC1ERKS5_ @372
    _ZN9__gnu_cxx17__normal_iteratorIPKSt10shared_ptrI12addressSpaceESt6vectorIS3_SaIS3_EEEC1IPS3_EERKNS0_IT_NS_11__enable_ifIXsrSt10__are_sameISC_SB_E7__valueES8_E6__typeEEE @373
    _ZN9__gnu_cxx17__normal_iteratorIPKSt10unique_ptrI14pageVisualizerSt14default_deleteIS2_EESt6vectorIS5_SaIS5_EEEC1ERKS7_ @374
    _ZN9__gnu_cxx17__normal_iteratorIPKSt10unique_ptrI14pageVisualizerSt14default_deleteIS2_EESt6vectorIS5_SaIS5_EEEC1IPS5_EERKNS0_IT_NS_11__enable_ifIXsrSt10__are_sameISE_SD_E7__valueESA_E6__typeEEE @375
    _ZN9__gnu_cxx17__normal_iteratorIPPNSt7__cxx1112basic_stringIcSt11char_traitsIcESaIcEEESt6vectorIS7_SaIS7_EEEC1ERKS8_ @376
    _ZN9__gnu_cxx17__normal_iteratorIPSt10shared_ptrI12addressSpaceESt6vectorIS3_SaIS3_EEEC1ERKS4_ @377
    _ZN9__gnu_cxx17__normal_iteratorIPSt10shared_ptrI12addressSpaceESt6vectorIS3_SaIS3_EEEppEv @378
    _ZN9__gnu_cxx17__normal_iteratorIPSt10unique_ptrI14pageVisualizerSt14default_deleteIS2_EESt6vectorIS5_SaIS5_EEEC1ERKS6_ @379
    _ZN9__gnu_cxx17__normal_iteratorIPmSt6vectorImSaImEEEC1ERKS1_ @380
    _ZN9__gnu_cxxeqIPKPNSt7__cxx1112basic_stringIcSt11char_traitsIcESaIcEEESt6vectorIS7_SaIS7_EEEEbRKNS_17__normal_iteratorIT_T0_EESI_ @381
    _ZN9__gnu_cxxmiIP8quadcordSt6vectorIS1_SaIS1_EEEENS_17__normal_iteratorIT_T0_E15difference_typeERKS9_SC_ @382
    _ZN9__gnu_cxxmiIPKPNSt7__cxx1112basic_stringIcSt11char_traitsIcESaIcEEESt6vectorIS7_SaIS7_EEEENS_17__normal_iteratorIT_T0_E15difference_typeERKSG_SJ_ @383
    _ZN9__gnu_cxxmiIPKSt10shared_ptrI12addressSpaceESt6vectorIS3_SaIS3_EEEENS_17__normal_iteratorIT_T0_E15difference_typeERKSC_SF_ @384
    _ZN9__gnu_cxxmiIPKSt10unique_ptrI14pageVisualizerSt14default_deleteIS2_EESt6vectorIS5_SaIS5_EEEENS_17__normal_iteratorIT_T0_E15difference_typeERKSE_SH_ @385
    _ZN9__gnu_cxxmiIPPNSt7__cxx1112basic_stringIcSt11char_traitsIcESaIcEEESt6vectorIS7_SaIS7_EEEENS_17__normal_iteratorIT_T0_E15difference_typeERKSF_SI_ @386
    _ZN9__gnu_cxxmiIPSt10shared_ptrI12addressSpaceESt6vectorIS3_SaIS3_EEEENS_17__normal_iteratorIT_T0_E15difference_typeERKSB_SE_ @387
    _ZN9__gnu_cxxmiIPSt10unique_ptrI14pageVisualizerSt14default_deleteIS2_EESt6vectorIS5_SaIS5_EEEENS_17__normal_iteratorIT_T0_E15difference_typeERKSD_SG_ @388
    _ZN9__gnu_cxxmiIPmSt6vectorImSaImEEEENS_17__normal_iteratorIT_T0_E15difference_typeERKS8_SB_ @389
    _ZN9__gnu_cxxneIP8quadcordSt6vectorIS1_SaIS1_EEEEbRKNS_17__normal_iteratorIT_T0_EESB_ @390
    _ZN9__gnu_cxxneIPSt10shared_ptrI12addressSpaceESt6vectorIS3_SaIS3_EEEEbRKNS_17__normal_iteratorIT_T0_EESD_ @391
    _ZN9__gnu_cxxneIPSt10unique_ptrI14pageVisualizerSt14default_deleteIS2_EESt6vectorIS5_SaIS5_EEEEbRKNS_17__normal_iteratorIT_T0_EESF_ @392
    _ZN9multiPage10removeBankEi @393
    _ZN9multiPage10switchBankEi @394
    _ZN9multiPage16cleanupAndUnlinkEv @395
    _ZN9multiPage19removeAndUnlinkBankEi @396
    _ZN9multiPage5_sizeEv @397
    _ZN9multiPage7addBankESt10shared_ptrI12addressSpaceE @398
    _ZN9multiPage7readMemEmPhm @399
    _ZN9multiPage8_contentEv @400
    _ZN9multiPage8_is_freeEv @401
    _ZN9multiPage8readByteEm @402
    _ZN9multiPage8writeMemEmPhm @403
    _ZN9multiPage9writeByteEmh @404
    _ZN9multiPageC1Ev @405
    _ZN9multiPageC2Ev @406
    _ZN9multiPageD0Ev @407
    _ZN9multiPageD1Ev @408
    _ZNK9__gnu_cxx13new_allocatorI8quadcordE8max_sizeEv @409
    _ZNK9__gnu_cxx13new_allocatorINSt8__detail10_Hash_nodeISt4pairIKNSt7__cxx1112basic_stringIcSt11char_traitsIcESaIcEEEP18virtualMemorySpaceELb1EEEE8max_sizeEv @410
    _ZNK9__gnu_cxx13new_allocatorINSt8__detail10_Hash_nodeISt4pairIKNSt7__cxx1112basic_stringIcSt11char_traitsIcESaIcEEESt10shared_ptrI12addressSpaceEELb1EEEE8max_sizeEv @411
    _ZNK9__gnu_cxx13new_allocatorIPNSt7__cxx1112basic_stringIcSt11char_traitsIcESaIcEEEE8max_sizeEv @412
    _ZNK9__gnu_cxx13new_allocatorIPNSt8__detail15_Hash_node_baseEE8max_sizeEv @413
    _ZNK9__gnu_cxx13new_allocatorISt10shared_ptrI12addressSpaceEE8max_sizeEv @414
    _ZNK9__gnu_cxx13new_allocatorISt10unique_ptrI14pageVisualizerSt14default_deleteIS2_EEE8max_sizeEv @415
    _ZNK9__gnu_cxx13new_allocatorISt23_Sp_counted_ptr_inplaceI10loggedPageSaIS2_ELNS_12_Lock_policyE2EEE8max_sizeEv @416
    _ZNK9__gnu_cxx13new_allocatorISt23_Sp_counted_ptr_inplaceI11virtualPageSaIS2_ELNS_12_Lock_policyE2EEE8max_sizeEv @417
    _ZNK9__gnu_cxx13new_allocatorISt23_Sp_counted_ptr_inplaceI14applicationMemSaIS2_ELNS_12_Lock_policyE2EEE8max_sizeEv @418
    _ZNK9__gnu_cxx13new_allocatorISt23_Sp_counted_ptr_inplaceI15memorySpacePageSaIS2_ELNS_12_Lock_policyE2EEE8max_sizeEv @419
    _ZNK9__gnu_cxx13new_allocatorISt23_Sp_counted_ptr_inplaceI7luaPageSaIS2_ELNS_12_Lock_policyE2EEE8max_sizeEv @420
    _ZNK9__gnu_cxx13new_allocatorISt23_Sp_counted_ptr_inplaceI8MPA_pageSaIS2_ELNS_12_Lock_policyE2EEE8max_sizeEv @421
    _ZNK9__gnu_cxx13new_allocatorISt23_Sp_counted_ptr_inplaceI8filePageSaIS2_ELNS_12_Lock_policyE2EEE8max_sizeEv @422
    _ZNK9__gnu_cxx13new_allocatorISt23_Sp_counted_ptr_inplaceI9multiPageSaIS2_ELNS_12_Lock_policyE2EEE8max_sizeEv @423
    _ZNK9__gnu_cxx13new_allocatorImE8max_sizeEv @424
    _ZNK9__gnu_cxx17__normal_iteratorIP8quadcordSt6vectorIS1_SaIS1_EEE4baseEv @425
    _ZNK9__gnu_cxx17__normal_iteratorIP8quadcordSt6vectorIS1_SaIS1_EEEdeEv @426
    _ZNK9__gnu_cxx17__normal_iteratorIPKPNSt7__cxx1112basic_stringIcSt11char_traitsIcESaIcEEESt6vectorIS7_SaIS7_EEE4baseEv @427
    _ZNK9__gnu_cxx17__normal_iteratorIPKSt10shared_ptrI12addressSpaceESt6vectorIS3_SaIS3_EEE4baseEv @428
    _ZNK9__gnu_cxx17__normal_iteratorIPKSt10unique_ptrI14pageVisualizerSt14default_deleteIS2_EESt6vectorIS5_SaIS5_EEE4baseEv @429
    _ZNK9__gnu_cxx17__normal_iteratorIPPNSt7__cxx1112basic_stringIcSt11char_traitsIcESaIcEEESt6vectorIS7_SaIS7_EEE4baseEv @430
    _ZNK9__gnu_cxx17__normal_iteratorIPPNSt7__cxx1112basic_stringIcSt11char_traitsIcESaIcEEESt6vectorIS7_SaIS7_EEEdeEv @431
    _ZNK9__gnu_cxx17__normal_iteratorIPPNSt7__cxx1112basic_stringIcSt11char_traitsIcESaIcEEESt6vectorIS7_SaIS7_EEEplEi @432
    _ZNK9__gnu_cxx17__normal_iteratorIPSt10shared_ptrI12addressSpaceESt6vectorIS3_SaIS3_EEE4baseEv @433
    _ZNK9__gnu_cxx17__normal_iteratorIPSt10shared_ptrI12addressSpaceESt6vectorIS3_SaIS3_EEEdeEv @434
    _ZNK9__gnu_cxx17__normal_iteratorIPSt10shared_ptrI12addressSpaceESt6vectorIS3_SaIS3_EEEplEi @435
    _ZNK9__gnu_cxx17__normal_iteratorIPSt10unique_ptrI14pageVisualizerSt14default_deleteIS2_EESt6vectorIS5_SaIS5_EEE4baseEv @436
    _ZNK9__gnu_cxx17__normal_iteratorIPSt10unique_ptrI14pageVisualizerSt14default_deleteIS2_EESt6vectorIS5_SaIS5_EEEplEi @437
    _ZNK9__gnu_cxx17__normal_iteratorIPmSt6vectorImSaImEEE4baseEv @438
    _ZNKSt10_HashtableINSt7__cxx1112basic_stringIcSt11char_traitsIcESaIcEEESt4pairIKS5_P18virtualMemorySpaceESaISA_ENSt8__detail10_Select1stESt8equal_toIS5_ESt4hashIS5_ENSC_18_Mod_range_hashingENSC_20_Default_ranged_hashENSC_20_Prime_rehash_policyENSC_17_Hashtable_traitsILb1ELb0ELb1EEEE12_M_find_nodeEjRS7_j @439
    _ZNKSt10_HashtableINSt7__cxx1112basic_stringIcSt11char_traitsIcESaIcEEESt4pairIKS5_P18virtualMemorySpaceESaISA_ENSt8__detail10_Select1stESt8equal_toIS5_ESt4hashIS5_ENSC_18_Mod_range_hashingENSC_20_Default_ranged_hashENSC_20_Prime_rehash_policyENSC_17_Hashtable_traitsILb1ELb0ELb1EEEE15_M_bucket_indexEPNSC_10_Hash_nodeISA_Lb1EEE @440
    _ZNKSt10_HashtableINSt7__cxx1112basic_stringIcSt11char_traitsIcESaIcEEESt4pairIKS5_P18virtualMemorySpaceESaISA_ENSt8__detail10_Select1stESt8equal_toIS5_ESt4hashIS5_ENSC_18_Mod_range_hashingENSC_20_Default_ranged_hashENSC_20_Prime_rehash_policyENSC_17_Hashtable_traitsILb1ELb0ELb1EEEE15_M_bucket_indexERS7_j @441
    _ZNKSt10_HashtableINSt7__cxx1112basic_stringIcSt11char_traitsIcESaIcEEESt4pairIKS5_P18virtualMemorySpaceESaISA_ENSt8__detail10_Select1stESt8equal_toIS5_ESt4hashIS5_ENSC_18_Mod_range_hashingENSC_20_Default_ranged_hashENSC_20_Prime_rehash_policyENSC_17_Hashtable_traitsILb1ELb0ELb1EEEE19_M_find_before_nodeEjRS7_j @442
    _ZNKSt10_HashtableINSt7__cxx1112basic_stringIcSt11char_traitsIcESaIcEEESt4pairIKS5_P18virtualMemorySpaceESaISA_ENSt8__detail10_Select1stESt8equal_toIS5_ESt4hashIS5_ENSC_18_Mod_range_hashingENSC_20_Default_ranged_hashENSC_20_Prime_rehash_policyENSC_17_Hashtable_traitsILb1ELb0ELb1EEEE21_M_uses_single_bucketEPPNSC_15_Hash_node_baseE @443
    _ZNKSt10_HashtableINSt7__cxx1112basic_stringIcSt11char_traitsIcESaIcEEESt4pairIKS5_P18virtualMemorySpaceESaISA_ENSt8__detail10_Select1stESt8equal_toIS5_ESt4hashIS5_ENSC_18_Mod_range_hashingENSC_20_Default_ranged_hashENSC_20_Prime_rehash_policyENSC_17_Hashtable_traitsILb1ELb0ELb1EEEE8_M_beginEv @444
    _ZNKSt10_HashtableINSt7__cxx1112basic_stringIcSt11char_traitsIcESaIcEEESt4pairIKS5_St10shared_ptrI12addressSpaceEESaISB_ENSt8__detail10_Select1stESt8equal_toIS5_ESt4hashIS5_ENSD_18_Mod_range_hashingENSD_20_Default_ranged_hashENSD_20_Prime_rehash_policyENSD_17_Hashtable_traitsILb1ELb0ELb1EEEE12_M_find_nodeEjRS7_j @445
    _ZNKSt10_HashtableINSt7__cxx1112basic_stringIcSt11char_traitsIcESaIcEEESt4pairIKS5_St10shared_ptrI12addressSpaceEESaISB_ENSt8__detail10_Select1stESt8equal_toIS5_ESt4hashIS5_ENSD_18_Mod_range_hashingENSD_20_Default_ranged_hashENSD_20_Prime_rehash_policyENSD_17_Hashtable_traitsILb1ELb0ELb1EEEE15_M_bucket_indexEPNSD_10_Hash_nodeISB_Lb1EEE @446
    _ZNKSt10_HashtableINSt7__cxx1112basic_stringIcSt11char_traitsIcESaIcEEESt4pairIKS5_St10shared_ptrI12addressSpaceEESaISB_ENSt8__detail10_Select1stESt8equal_toIS5_ESt4hashIS5_ENSD_18_Mod_range_hashingENSD_20_Default_ranged_hashENSD_20_Prime_rehash_policyENSD_17_Hashtable_traitsILb1ELb0ELb1EEEE15_M_bucket_indexERS7_j @447
    _ZNKSt10_HashtableINSt7__cxx1112basic_stringIcSt11char_traitsIcESaIcEEESt4pairIKS5_St10shared_ptrI12addressSpaceEESaISB_ENSt8__detail10_Select1stESt8equal_toIS5_ESt4hashIS5_ENSD_18_Mod_range_hashingENSD_20_Default_ranged_hashENSD_20_Prime_rehash_policyENSD_17_Hashtable_traitsILb1ELb0ELb1EEEE19_M_find_before_nodeEjRS7_j @448
    _ZNKSt10_HashtableINSt7__cxx1112basic_stringIcSt11char_traitsIcESaIcEEESt4pairIKS5_St10shared_ptrI12addressSpaceEESaISB_ENSt8__detail10_Select1stESt8equal_toIS5_ESt4hashIS5_ENSD_18_Mod_range_hashingENSD_20_Default_ranged_hashENSD_20_Prime_rehash_policyENSD_17_Hashtable_traitsILb1ELb0ELb1EEEE21_M_uses_single_bucketEPPNSD_15_Hash_node_baseE @449
    _ZNKSt10_HashtableINSt7__cxx1112basic_stringIcSt11char_traitsIcESaIcEEESt4pairIKS5_St10shared_ptrI12addressSpaceEESaISB_ENSt8__detail10_Select1stESt8equal_toIS5_ESt4hashIS5_ENSD_18_Mod_range_hashingENSD_20_Default_ranged_hashENSD_20_Prime_rehash_policyENSD_17_Hashtable_traitsILb1ELb0ELb1EEEE8_M_beginEv @450
    _ZNKSt10unique_ptrI14pageVisualizerSt14default_deleteIS0_EE3getEv @451
    _ZNKSt10unique_ptrI14pageVisualizerSt14default_deleteIS0_EEptEv @452
    _ZNKSt12_Vector_baseI8quadcordSaIS0_EE19_M_get_Tp_allocatorEv @453
    _ZNKSt12_Vector_baseIPNSt7__cxx1112basic_stringIcSt11char_traitsIcESaIcEEESaIS6_EE19_M_get_Tp_allocatorEv @454
    _ZNKSt12_Vector_baseISt10shared_ptrI12addressSpaceESaIS2_EE19_M_get_Tp_allocatorEv @455
    _ZNKSt12_Vector_baseISt10unique_ptrI14pageVisualizerSt14default_deleteIS1_EESaIS4_EE19_M_get_Tp_allocatorEv @456
    _ZNKSt12_Vector_baseImSaImEE19_M_get_Tp_allocatorEv @457
    _ZNKSt12__shared_ptrI12addressSpaceLN9__gnu_cxx12_Lock_policyE2EE3getEv @458
    _ZNKSt12__shared_ptrI12addressSpaceLN9__gnu_cxx12_Lock_policyE2EEcvbEv @459
    _ZNKSt12__shared_ptrI7luaPageLN9__gnu_cxx12_Lock_policyE2EE3getEv @460
    _ZNKSt12__shared_ptrI9multiPageLN9__gnu_cxx12_Lock_policyE2EE3getEv @461
    _ZNKSt13move_iteratorIP8quadcordE4baseEv @462
    _ZNKSt13move_iteratorIPPNSt7__cxx1112basic_stringIcSt11char_traitsIcESaIcEEEE4baseEv @463
    _ZNKSt13move_iteratorIPSt10shared_ptrI12addressSpaceEE4baseEv @464
    _ZNKSt13move_iteratorIPSt10shared_ptrI12addressSpaceEEdeEv @465
    _ZNKSt13move_iteratorIPSt10unique_ptrI14pageVisualizerSt14default_deleteIS1_EEE4baseEv @466
    _ZNKSt13move_iteratorIPSt10unique_ptrI14pageVisualizerSt14default_deleteIS1_EEEdeEv @467
    _ZNKSt13move_iteratorIPmE4baseEv @468
    _ZNKSt14__shared_countILN9__gnu_cxx12_Lock_policyE2EE14_M_get_deleterERKSt9type_info @469
    _ZNKSt14default_deleteI14pageVisualizerEclEPS0_ @470
    _ZNKSt15__uniq_ptr_implI14pageVisualizerSt14default_deleteIS0_EE6_M_ptrEv @471
    _ZNKSt19__shared_ptr_accessI12addressSpaceLN9__gnu_cxx12_Lock_policyE2ELb0ELb0EE6_M_getEv @472
    _ZNKSt19__shared_ptr_accessI12addressSpaceLN9__gnu_cxx12_Lock_policyE2ELb0ELb0EEptEv @473
    _ZNKSt19__shared_ptr_accessI7luaPageLN9__gnu_cxx12_Lock_policyE2ELb0ELb0EE6_M_getEv @474
    _ZNKSt19__shared_ptr_accessI7luaPageLN9__gnu_cxx12_Lock_policyE2ELb0ELb0EEptEv @475
    _ZNKSt19__shared_ptr_accessI9multiPageLN9__gnu_cxx12_Lock_policyE2ELb0ELb0EE6_M_getEv @476
    _ZNKSt19__shared_ptr_accessI9multiPageLN9__gnu_cxx12_Lock_policyE2ELb0ELb0EEptEv @477
    _ZNKSt4hashINSt7__cxx1112basic_stringIcSt11char_traitsIcESaIcEEEEclERKS5_ @478
    _ZNKSt6vectorI8quadcordSaIS0_EE12_M_check_lenEjPKc @479
    _ZNKSt6vectorI8quadcordSaIS0_EE4sizeEv @480
    _ZNKSt6vectorI8quadcordSaIS0_EE8max_sizeEv @481
    _ZNKSt6vectorIPNSt7__cxx1112basic_stringIcSt11char_traitsIcESaIcEEESaIS6_EE12_M_check_lenEjPKc @482
    _ZNKSt6vectorIPNSt7__cxx1112basic_stringIcSt11char_traitsIcESaIcEEESaIS6_EE3endEv @483
    _ZNKSt6vectorIPNSt7__cxx1112basic_stringIcSt11char_traitsIcESaIcEEESaIS6_EE4cendEv @484
    _ZNKSt6vectorIPNSt7__cxx1112basic_stringIcSt11char_traitsIcESaIcEEESaIS6_EE4sizeEv @485
    _ZNKSt6vectorIPNSt7__cxx1112basic_stringIcSt11char_traitsIcESaIcEEESaIS6_EE5beginEv @486
    _ZNKSt6vectorIPNSt7__cxx1112basic_stringIcSt11char_traitsIcESaIcEEESaIS6_EE6cbeginEv @487
    _ZNKSt6vectorIPNSt7__cxx1112basic_stringIcSt11char_traitsIcESaIcEEESaIS6_EE8max_sizeEv @488
    _ZNKSt6vectorISt10shared_ptrI12addressSpaceESaIS2_EE12_M_check_lenEjPKc @489
    _ZNKSt6vectorISt10shared_ptrI12addressSpaceESaIS2_EE14_M_range_checkEj @490
    _ZNKSt6vectorISt10shared_ptrI12addressSpaceESaIS2_EE4sizeEv @491
    _ZNKSt6vectorISt10shared_ptrI12addressSpaceESaIS2_EE6cbeginEv @492
    _ZNKSt6vectorISt10shared_ptrI12addressSpaceESaIS2_EE8max_sizeEv @493
    _ZNKSt6vectorISt10unique_ptrI14pageVisualizerSt14default_deleteIS1_EESaIS4_EE12_M_check_lenEjPKc @494
    _ZNKSt6vectorISt10unique_ptrI14pageVisualizerSt14default_deleteIS1_EESaIS4_EE14_M_range_checkEj @495
    _ZNKSt6vectorISt10unique_ptrI14pageVisualizerSt14default_deleteIS1_EESaIS4_EE4sizeEv @496
    _ZNKSt6vectorISt10unique_ptrI14pageVisualizerSt14default_deleteIS1_EESaIS4_EE6cbeginEv @497
    _ZNKSt6vectorISt10unique_ptrI14pageVisualizerSt14default_deleteIS1_EESaIS4_EE8max_sizeEv @498
    _ZNKSt6vectorImSaImEE12_M_check_lenEjPKc @499
    _ZNKSt6vectorImSaImEE4sizeEv @500
    _ZNKSt6vectorImSaImEE8max_sizeEv @501
    _ZNKSt8__detail10_Hash_nodeISt4pairIKNSt7__cxx1112basic_stringIcSt11char_traitsIcESaIcEEEP18virtualMemorySpaceELb1EE7_M_nextEv @502
    _ZNKSt8__detail10_Hash_nodeISt4pairIKNSt7__cxx1112basic_stringIcSt11char_traitsIcESaIcEEESt10shared_ptrI12addressSpaceEELb1EE7_M_nextEv @503
    _ZNKSt8__detail10_Select1stclIRSt4pairIKNSt7__cxx1112basic_stringIcSt11char_traitsIcESaIcEEEP18virtualMemorySpaceEEEDTcl3getILi0EEcl7forwardIT_Efp_EEEOSE_ @504
    _ZNKSt8__detail10_Select1stclIRSt4pairIKNSt7__cxx1112basic_stringIcSt11char_traitsIcESaIcEEESt10shared_ptrI12addressSpaceEEEEDTcl3getILi0EEcl7forwardIT_Efp_EEEOSF_ @505
    _ZNKSt8__detail15_Hash_code_baseINSt7__cxx1112basic_stringIcSt11char_traitsIcESaIcEEESt4pairIKS6_P18virtualMemorySpaceENS_10_Select1stESt4hashIS6_ENS_18_Mod_range_hashingENS_20_Default_ranged_hashELb1EE10_M_extractEv @506
    _ZNKSt8__detail15_Hash_code_baseINSt7__cxx1112basic_stringIcSt11char_traitsIcESaIcEEESt4pairIKS6_P18virtualMemorySpaceENS_10_Select1stESt4hashIS6_ENS_18_Mod_range_hashingENS_20_Default_ranged_hashELb1EE12_M_hash_codeERS8_ @507
    _ZNKSt8__detail15_Hash_code_baseINSt7__cxx1112basic_stringIcSt11char_traitsIcESaIcEEESt4pairIKS6_P18virtualMemorySpaceENS_10_Select1stESt4hashIS6_ENS_18_Mod_range_hashingENS_20_Default_ranged_hashELb1EE13_M_store_codeEPNS_10_Hash_nodeISB_Lb1EEEj @508
    _ZNKSt8__detail15_Hash_code_baseINSt7__cxx1112basic_stringIcSt11char_traitsIcESaIcEEESt4pairIKS6_P18virtualMemorySpaceENS_10_Select1stESt4hashIS6_ENS_18_Mod_range_hashingENS_20_Default_ranged_hashELb1EE15_M_bucket_indexEPKNS_10_Hash_nodeISB_Lb1EEEj @509
    _ZNKSt8__detail15_Hash_code_baseINSt7__cxx1112basic_stringIcSt11char_traitsIcESaIcEEESt4pairIKS6_P18virtualMemorySpaceENS_10_Select1stESt4hashIS6_ENS_18_Mod_range_hashingENS_20_Default_ranged_hashELb1EE15_M_bucket_indexERS8_jj @510
    _ZNKSt8__detail15_Hash_code_baseINSt7__cxx1112basic_stringIcSt11char_traitsIcESaIcEEESt4pairIKS6_P18virtualMemorySpaceENS_10_Select1stESt4hashIS6_ENS_18_Mod_range_hashingENS_20_Default_ranged_hashELb1EE5_M_h1Ev @511
    _ZNKSt8__detail15_Hash_code_baseINSt7__cxx1112basic_stringIcSt11char_traitsIcESaIcEEESt4pairIKS6_P18virtualMemorySpaceENS_10_Select1stESt4hashIS6_ENS_18_Mod_range_hashingENS_20_Default_ranged_hashELb1EE5_M_h2Ev @512
    _ZNKSt8__detail15_Hash_code_baseINSt7__cxx1112basic_stringIcSt11char_traitsIcESaIcEEESt4pairIKS6_St10shared_ptrI12addressSpaceEENS_10_Select1stESt4hashIS6_ENS_18_Mod_range_hashingENS_20_Default_ranged_hashELb1EE10_M_extractEv @513
    _ZNKSt8__detail15_Hash_code_baseINSt7__cxx1112basic_stringIcSt11char_traitsIcESaIcEEESt4pairIKS6_St10shared_ptrI12addressSpaceEENS_10_Select1stESt4hashIS6_ENS_18_Mod_range_hashingENS_20_Default_ranged_hashELb1EE12_M_hash_codeERS8_ @514
    _ZNKSt8__detail15_Hash_code_baseINSt7__cxx1112basic_stringIcSt11char_traitsIcESaIcEEESt4pairIKS6_St10shared_ptrI12addressSpaceEENS_10_Select1stESt4hashIS6_ENS_18_Mod_range_hashingENS_20_Default_ranged_hashELb1EE13_M_store_codeEPNS_10_Hash_nodeISC_Lb1EEEj @515
    _ZNKSt8__detail15_Hash_code_baseINSt7__cxx1112basic_stringIcSt11char_traitsIcESaIcEEESt4pairIKS6_St10shared_ptrI12addressSpaceEENS_10_Select1stESt4hashIS6_ENS_18_Mod_range_hashingENS_20_Default_ranged_hashELb1EE15_M_bucket_indexEPKNS_10_Hash_nodeISC_Lb1EEEj @516
    _ZNKSt8__detail15_Hash_code_baseINSt7__cxx1112basic_stringIcSt11char_traitsIcESaIcEEESt4pairIKS6_St10shared_ptrI12addressSpaceEENS_10_Select1stESt4hashIS6_ENS_18_Mod_range_hashingENS_20_Default_ranged_hashELb1EE15_M_bucket_indexERS8_jj @517
    _ZNKSt8__detail15_Hash_code_baseINSt7__cxx1112basic_stringIcSt11char_traitsIcESaIcEEESt4pairIKS6_St10shared_ptrI12addressSpaceEENS_10_Select1stESt4hashIS6_ENS_18_Mod_range_hashingENS_20_Default_ranged_hashELb1EE5_M_h1Ev @518
    _ZNKSt8__detail15_Hash_code_baseINSt7__cxx1112basic_stringIcSt11char_traitsIcESaIcEEESt4pairIKS6_St10shared_ptrI12addressSpaceEENS_10_Select1stESt4hashIS6_ENS_18_Mod_range_hashingENS_20_Default_ranged_hashELb1EE5_M_h2Ev @519
    _ZNKSt8__detail15_Hashtable_baseINSt7__cxx1112basic_stringIcSt11char_traitsIcESaIcEEESt4pairIKS6_P18virtualMemorySpaceENS_10_Select1stESt8equal_toIS6_ESt4hashIS6_ENS_18_Mod_range_hashingENS_20_Default_ranged_hashENS_17_Hashtable_traitsILb1ELb0ELb1EEEE5_M_eqEv @520
    _ZNKSt8__detail15_Hashtable_baseINSt7__cxx1112basic_stringIcSt11char_traitsIcESaIcEEESt4pairIKS6_P18virtualMemorySpaceENS_10_Select1stESt8equal_toIS6_ESt4hashIS6_ENS_18_Mod_range_hashingENS_20_Default_ranged_hashENS_17_Hashtable_traitsILb1ELb0ELb1EEEE9_M_equalsERS8_jPNS_10_Hash_nodeISB_Lb1EEE @521
    _ZNKSt8__detail15_Hashtable_baseINSt7__cxx1112basic_stringIcSt11char_traitsIcESaIcEEESt4pairIKS6_St10shared_ptrI12addressSpaceEENS_10_Select1stESt8equal_toIS6_ESt4hashIS6_ENS_18_Mod_range_hashingENS_20_Default_ranged_hashENS_17_Hashtable_traitsILb1ELb0ELb1EEEE5_M_eqEv @522
    _ZNKSt8__detail15_Hashtable_baseINSt7__cxx1112basic_stringIcSt11char_traitsIcESaIcEEESt4pairIKS6_St10shared_ptrI12addressSpaceEENS_10_Select1stESt8equal_toIS6_ESt4hashIS6_ENS_18_Mod_range_hashingENS_20_Default_ranged_hashENS_17_Hashtable_traitsILb1ELb0ELb1EEEE9_M_equalsERS8_jPNS_10_Hash_nodeISC_Lb1EEE @523
    _ZNKSt8__detail18_Mod_range_hashingclEjj @524
    _ZNKSt8__detail20_Prime_rehash_policy8_M_stateEv @525
    _ZNKSt8equal_toINSt7__cxx1112basic_stringIcSt11char_traitsIcESaIcEEEEclERKS5_S8_ @526
    _ZNSaI10loggedPageEC1ERKS0_ @527
    _ZNSaI10loggedPageEC1Ev @528
    _ZNSaI10loggedPageEC2ERKS0_ @529
    _ZNSaI10loggedPageED1Ev @530
    _ZNSaI10loggedPageED2Ev @531
    _ZNSaI11virtualPageEC1ERKS0_ @532
    _ZNSaI11virtualPageEC1Ev @533
    _ZNSaI11virtualPageEC2ERKS0_ @534
    _ZNSaI11virtualPageED1Ev @535
    _ZNSaI11virtualPageED2Ev @536
    _ZNSaI14applicationMemEC1ERKS0_ @537
    _ZNSaI14applicationMemEC1Ev @538
    _ZNSaI14applicationMemEC2ERKS0_ @539
    _ZNSaI14applicationMemED1Ev @540
    _ZNSaI14applicationMemED2Ev @541
    _ZNSaI15memorySpacePageEC1ERKS0_ @542
    _ZNSaI15memorySpacePageEC1Ev @543
    _ZNSaI15memorySpacePageEC2ERKS0_ @544
    _ZNSaI15memorySpacePageED1Ev @545
    _ZNSaI15memorySpacePageED2Ev @546
    _ZNSaI7luaPageEC1ERKS0_ @547
    _ZNSaI7luaPageEC1Ev @548
    _ZNSaI7luaPageEC2ERKS0_ @549
    _ZNSaI7luaPageED1Ev @550
    _ZNSaI7luaPageED2Ev @551
    _ZNSaI8MPA_pageEC1ERKS0_ @552
    _ZNSaI8MPA_pageEC1Ev @553
    _ZNSaI8MPA_pageEC2ERKS0_ @554
    _ZNSaI8MPA_pageED1Ev @555
    _ZNSaI8MPA_pageED2Ev @556
    _ZNSaI8filePageEC1ERKS0_ @557
    _ZNSaI8filePageEC1Ev @558
    _ZNSaI8filePageEC2ERKS0_ @559
    _ZNSaI8filePageED1Ev @560
    _ZNSaI8filePageED2Ev @561
    _ZNSaI8quadcordEC2Ev @562
    _ZNSaI8quadcordED2Ev @563
    _ZNSaI9multiPageEC1ERKS0_ @564
    _ZNSaI9multiPageEC1Ev @565
    _ZNSaI9multiPageEC2ERKS0_ @566
    _ZNSaI9multiPageED1Ev @567
    _ZNSaI9multiPageED2Ev @568
    _ZNSaINSt8__detail10_Hash_nodeISt4pairIKNSt7__cxx1112basic_stringIcSt11char_traitsIcESaIcEEEP18virtualMemorySpaceELb1EEEEC2Ev @569
    _ZNSaINSt8__detail10_Hash_nodeISt4pairIKNSt7__cxx1112basic_stringIcSt11char_traitsIcESaIcEEEP18virtualMemorySpaceELb1EEEED2Ev @570
    _ZNSaINSt8__detail10_Hash_nodeISt4pairIKNSt7__cxx1112basic_stringIcSt11char_traitsIcESaIcEEESt10shared_ptrI12addressSpaceEELb1EEEEC2Ev @571
    _ZNSaINSt8__detail10_Hash_nodeISt4pairIKNSt7__cxx1112basic_stringIcSt11char_traitsIcESaIcEEESt10shared_ptrI12addressSpaceEELb1EEEED2Ev @572
    _ZNSaIP18memoryPageAccessorEC2Ev @573
    _ZNSaIP18memoryPageAccessorED2Ev @574
    _ZNSaIPNSt7__cxx1112basic_stringIcSt11char_traitsIcESaIcEEEEC1ERKS6_ @575
    _ZNSaIPNSt7__cxx1112basic_stringIcSt11char_traitsIcESaIcEEEEC2ERKS6_ @576
    _ZNSaIPNSt7__cxx1112basic_stringIcSt11char_traitsIcESaIcEEEEC2Ev @577
    _ZNSaIPNSt7__cxx1112basic_stringIcSt11char_traitsIcESaIcEEEED1Ev @578
    _ZNSaIPNSt7__cxx1112basic_stringIcSt11char_traitsIcESaIcEEEED2Ev @579
    _ZNSaIPNSt8__detail15_Hash_node_baseEEC1INS_10_Hash_nodeISt4pairIKNSt7__cxx1112basic_stringIcSt11char_traitsIcESaIcEEEP18virtualMemorySpaceELb1EEEEERKSaIT_E @580
    _ZNSaIPNSt8__detail15_Hash_node_baseEEC1INS_10_Hash_nodeISt4pairIKNSt7__cxx1112basic_stringIcSt11char_traitsIcESaIcEEESt10shared_ptrI12addressSpaceEELb1EEEEERKSaIT_E @581
    _ZNSaIPNSt8__detail15_Hash_node_baseEED1Ev @582
    _ZNSaISt10shared_ptrI12addressSpaceEEC2Ev @583
    _ZNSaISt10shared_ptrI12addressSpaceEED2Ev @584
    _ZNSaISt10unique_ptrI14pageVisualizerSt14default_deleteIS0_EEEC2Ev @585
    _ZNSaISt10unique_ptrI14pageVisualizerSt14default_deleteIS0_EEED2Ev @586
    _ZNSaISt23_Sp_counted_ptr_inplaceI10loggedPageSaIS0_ELN9__gnu_cxx12_Lock_policyE2EEEC1IS0_EERKSaIT_E @587
    _ZNSaISt23_Sp_counted_ptr_inplaceI10loggedPageSaIS0_ELN9__gnu_cxx12_Lock_policyE2EEED1Ev @588
    _ZNSaISt23_Sp_counted_ptr_inplaceI11virtualPageSaIS0_ELN9__gnu_cxx12_Lock_policyE2EEEC1IS0_EERKSaIT_E @589
    _ZNSaISt23_Sp_counted_ptr_inplaceI11virtualPageSaIS0_ELN9__gnu_cxx12_Lock_policyE2EEED1Ev @590
    _ZNSaISt23_Sp_counted_ptr_inplaceI14applicationMemSaIS0_ELN9__gnu_cxx12_Lock_policyE2EEEC1IS0_EERKSaIT_E @591
    _ZNSaISt23_Sp_counted_ptr_inplaceI14applicationMemSaIS0_ELN9__gnu_cxx12_Lock_policyE2EEED1Ev @592
    _ZNSaISt23_Sp_counted_ptr_inplaceI15memorySpacePageSaIS0_ELN9__gnu_cxx12_Lock_policyE2EEEC1IS0_EERKSaIT_E @593
    _ZNSaISt23_Sp_counted_ptr_inplaceI15memorySpacePageSaIS0_ELN9__gnu_cxx12_Lock_policyE2EEED1Ev @594
    _ZNSaISt23_Sp_counted_ptr_inplaceI7luaPageSaIS0_ELN9__gnu_cxx12_Lock_policyE2EEEC1IS0_EERKSaIT_E @595
    _ZNSaISt23_Sp_counted_ptr_inplaceI7luaPageSaIS0_ELN9__gnu_cxx12_Lock_policyE2EEED1Ev @596
    _ZNSaISt23_Sp_counted_ptr_inplaceI8MPA_pageSaIS0_ELN9__gnu_cxx12_Lock_policyE2EEEC1IS0_EERKSaIT_E @597
    _ZNSaISt23_Sp_counted_ptr_inplaceI8MPA_pageSaIS0_ELN9__gnu_cxx12_Lock_policyE2EEED1Ev @598
    _ZNSaISt23_Sp_counted_ptr_inplaceI8filePageSaIS0_ELN9__gnu_cxx12_Lock_policyE2EEEC1IS0_EERKSaIT_E @599
    _ZNSaISt23_Sp_counted_ptr_inplaceI8filePageSaIS0_ELN9__gnu_cxx12_Lock_policyE2EEED1Ev @600
    _ZNSaISt23_Sp_counted_ptr_inplaceI9multiPageSaIS0_ELN9__gnu_cxx12_Lock_policyE2EEEC1IS0_EERKSaIT_E @601
    _ZNSaISt23_Sp_counted_ptr_inplaceI9multiPageSaIS0_ELN9__gnu_cxx12_Lock_policyE2EEED1Ev @602
    _ZNSaImEC2Ev @603
    _ZNSaImED2Ev @604
    _ZNSt10_Hash_impl4hashEPKvjj @605
    _ZNSt10_HashtableINSt7__cxx1112basic_stringIcSt11char_traitsIcESaIcEEESt4pairIKS5_P18virtualMemorySpaceESaISA_ENSt8__detail10_Select1stESt8equal_toIS5_ESt4hashIS5_ENSC_18_Mod_range_hashingENSC_20_Default_ranged_hashENSC_20_Prime_rehash_policyENSC_17_Hashtable_traitsILb1ELb0ELb1EEEE10_M_emplaceIJRS6_IS5_S9_EEEES6_INSC_14_Node_iteratorISA_Lb0ELb1EEEbESt17integral_constantIbLb1EEDpOT_ @606
    _ZNSt10_HashtableINSt7__cxx1112basic_stringIcSt11char_traitsIcESaIcEEESt4pairIKS5_P18virtualMemorySpaceESaISA_ENSt8__detail10_Select1stESt8equal_toIS5_ESt4hashIS5_ENSC_18_Mod_range_hashingENSC_20_Default_ranged_hashENSC_20_Prime_rehash_policyENSC_17_Hashtable_traitsILb1ELb0ELb1EEEE13_M_rehash_auxEjSt17integral_constantIbLb1EE @607
    _ZNSt10_HashtableINSt7__cxx1112basic_stringIcSt11char_traitsIcESaIcEEESt4pairIKS5_P18virtualMemorySpaceESaISA_ENSt8__detail10_Select1stESt8equal_toIS5_ESt4hashIS5_ENSC_18_Mod_range_hashingENSC_20_Default_ranged_hashENSC_20_Prime_rehash_policyENSC_17_Hashtable_traitsILb1ELb0ELb1EEEE19_M_allocate_bucketsEj @608
    _ZNSt10_HashtableINSt7__cxx1112basic_stringIcSt11char_traitsIcESaIcEEESt4pairIKS5_P18virtualMemorySpaceESaISA_ENSt8__detail10_Select1stESt8equal_toIS5_ESt4hashIS5_ENSC_18_Mod_range_hashingENSC_20_Default_ranged_hashENSC_20_Prime_rehash_policyENSC_17_Hashtable_traitsILb1ELb0ELb1EEEE21_M_deallocate_bucketsEPPNSC_15_Hash_node_baseEj @609
    _ZNSt10_HashtableINSt7__cxx1112basic_stringIcSt11char_traitsIcESaIcEEESt4pairIKS5_P18virtualMemorySpaceESaISA_ENSt8__detail10_Select1stESt8equal_toIS5_ESt4hashIS5_ENSC_18_Mod_range_hashingENSC_20_Default_ranged_hashENSC_20_Prime_rehash_policyENSC_17_Hashtable_traitsILb1ELb0ELb1EEEE21_M_deallocate_bucketsEv @610
    _ZNSt10_HashtableINSt7__cxx1112basic_stringIcSt11char_traitsIcESaIcEEESt4pairIKS5_P18virtualMemorySpaceESaISA_ENSt8__detail10_Select1stESt8equal_toIS5_ESt4hashIS5_ENSC_18_Mod_range_hashingENSC_20_Default_ranged_hashENSC_20_Prime_rehash_policyENSC_17_Hashtable_traitsILb1ELb0ELb1EEEE21_M_insert_unique_nodeEjjPNSC_10_Hash_nodeISA_Lb1EEEj @611
    _ZNSt10_HashtableINSt7__cxx1112basic_stringIcSt11char_traitsIcESaIcEEESt4pairIKS5_P18virtualMemorySpaceESaISA_ENSt8__detail10_Select1stESt8equal_toIS5_ESt4hashIS5_ENSC_18_Mod_range_hashingENSC_20_Default_ranged_hashENSC_20_Prime_rehash_policyENSC_17_Hashtable_traitsILb1ELb0ELb1EEEE22_M_insert_bucket_beginEjPNSC_10_Hash_nodeISA_Lb1EEE @612
    _ZNSt10_HashtableINSt7__cxx1112basic_stringIcSt11char_traitsIcESaIcEEESt4pairIKS5_P18virtualMemorySpaceESaISA_ENSt8__detail10_Select1stESt8equal_toIS5_ESt4hashIS5_ENSC_18_Mod_range_hashingENSC_20_Default_ranged_hashENSC_20_Prime_rehash_policyENSC_17_Hashtable_traitsILb1ELb0ELb1EEEE22_M_remove_bucket_beginEjPNSC_10_Hash_nodeISA_Lb1EEEj @613
    _ZNSt10_HashtableINSt7__cxx1112basic_stringIcSt11char_traitsIcESaIcEEESt4pairIKS5_P18virtualMemorySpaceESaISA_ENSt8__detail10_Select1stESt8equal_toIS5_ESt4hashIS5_ENSC_18_Mod_range_hashingENSC_20_Default_ranged_hashENSC_20_Prime_rehash_policyENSC_17_Hashtable_traitsILb1ELb0ELb1EEEE3endEv @614
    _ZNSt10_HashtableINSt7__cxx1112basic_stringIcSt11char_traitsIcESaIcEEESt4pairIKS5_P18virtualMemorySpaceESaISA_ENSt8__detail10_Select1stESt8equal_toIS5_ESt4hashIS5_ENSC_18_Mod_range_hashingENSC_20_Default_ranged_hashENSC_20_Prime_rehash_policyENSC_17_Hashtable_traitsILb1ELb0ELb1EEEE4findERS7_ @615
    _ZNSt10_HashtableINSt7__cxx1112basic_stringIcSt11char_traitsIcESaIcEEESt4pairIKS5_P18virtualMemorySpaceESaISA_ENSt8__detail10_Select1stESt8equal_toIS5_ESt4hashIS5_ENSC_18_Mod_range_hashingENSC_20_Default_ranged_hashENSC_20_Prime_rehash_policyENSC_17_Hashtable_traitsILb1ELb0ELb1EEEE5clearEv @616
    _ZNSt10_HashtableINSt7__cxx1112basic_stringIcSt11char_traitsIcESaIcEEESt4pairIKS5_P18virtualMemorySpaceESaISA_ENSt8__detail10_Select1stESt8equal_toIS5_ESt4hashIS5_ENSC_18_Mod_range_hashingENSC_20_Default_ranged_hashENSC_20_Prime_rehash_policyENSC_17_Hashtable_traitsILb1ELb0ELb1EEEE5eraseERS7_ @617
    _ZNSt10_HashtableINSt7__cxx1112basic_stringIcSt11char_traitsIcESaIcEEESt4pairIKS5_P18virtualMemorySpaceESaISA_ENSt8__detail10_Select1stESt8equal_toIS5_ESt4hashIS5_ENSC_18_Mod_range_hashingENSC_20_Default_ranged_hashENSC_20_Prime_rehash_policyENSC_17_Hashtable_traitsILb1ELb0ELb1EEEE8_M_eraseESt17integral_constantIbLb1EERS7_ @618
    _ZNSt10_HashtableINSt7__cxx1112basic_stringIcSt11char_traitsIcESaIcEEESt4pairIKS5_P18virtualMemorySpaceESaISA_ENSt8__detail10_Select1stESt8equal_toIS5_ESt4hashIS5_ENSC_18_Mod_range_hashingENSC_20_Default_ranged_hashENSC_20_Prime_rehash_policyENSC_17_Hashtable_traitsILb1ELb0ELb1EEEE8_M_eraseEjPNSC_15_Hash_node_baseEPNSC_10_Hash_nodeISA_Lb1EEE @619
    _ZNSt10_HashtableINSt7__cxx1112basic_stringIcSt11char_traitsIcESaIcEEESt4pairIKS5_P18virtualMemorySpaceESaISA_ENSt8__detail10_Select1stESt8equal_toIS5_ESt4hashIS5_ENSC_18_Mod_range_hashingENSC_20_Default_ranged_hashENSC_20_Prime_rehash_policyENSC_17_Hashtable_traitsILb1ELb0ELb1EEEE9_M_rehashEjRKj @620
    _ZNSt10_HashtableINSt7__cxx1112basic_stringIcSt11char_traitsIcESaIcEEESt4pairIKS5_P18virtualMemorySpaceESaISA_ENSt8__detail10_Select1stESt8equal_toIS5_ESt4hashIS5_ENSC_18_Mod_range_hashingENSC_20_Default_ranged_hashENSC_20_Prime_rehash_policyENSC_17_Hashtable_traitsILb1ELb0ELb1EEEEC1Ev @621
    _ZNSt10_HashtableINSt7__cxx1112basic_stringIcSt11char_traitsIcESaIcEEESt4pairIKS5_P18virtualMemorySpaceESaISA_ENSt8__detail10_Select1stESt8equal_toIS5_ESt4hashIS5_ENSC_18_Mod_range_hashingENSC_20_Default_ranged_hashENSC_20_Prime_rehash_policyENSC_17_Hashtable_traitsILb1ELb0ELb1EEEED1Ev @622
    _ZNSt10_HashtableINSt7__cxx1112basic_stringIcSt11char_traitsIcESaIcEEESt4pairIKS5_St10shared_ptrI12addressSpaceEESaISB_ENSt8__detail10_Select1stESt8equal_toIS5_ESt4hashIS5_ENSD_18_Mod_range_hashingENSD_20_Default_ranged_hashENSD_20_Prime_rehash_policyENSD_17_Hashtable_traitsILb1ELb0ELb1EEEE10_M_emplaceIJRS6_IS5_SA_EEEES6_INSD_14_Node_iteratorISB_Lb0ELb1EEEbESt17integral_constantIbLb1EEDpOT_ @623
    _ZNSt10_HashtableINSt7__cxx1112basic_stringIcSt11char_traitsIcESaIcEEESt4pairIKS5_St10shared_ptrI12addressSpaceEESaISB_ENSt8__detail10_Select1stESt8equal_toIS5_ESt4hashIS5_ENSD_18_Mod_range_hashingENSD_20_Default_ranged_hashENSD_20_Prime_rehash_policyENSD_17_Hashtable_traitsILb1ELb0ELb1EEEE13_M_rehash_auxEjSt17integral_constantIbLb1EE @624
    _ZNSt10_HashtableINSt7__cxx1112basic_stringIcSt11char_traitsIcESaIcEEESt4pairIKS5_St10shared_ptrI12addressSpaceEESaISB_ENSt8__detail10_Select1stESt8equal_toIS5_ESt4hashIS5_ENSD_18_Mod_range_hashingENSD_20_Default_ranged_hashENSD_20_Prime_rehash_policyENSD_17_Hashtable_traitsILb1ELb0ELb1EEEE19_M_allocate_bucketsEj @625
    _ZNSt10_HashtableINSt7__cxx1112basic_stringIcSt11char_traitsIcESaIcEEESt4pairIKS5_St10shared_ptrI12addressSpaceEESaISB_ENSt8__detail10_Select1stESt8equal_toIS5_ESt4hashIS5_ENSD_18_Mod_range_hashingENSD_20_Default_ranged_hashENSD_20_Prime_rehash_policyENSD_17_Hashtable_traitsILb1ELb0ELb1EEEE21_M_deallocate_bucketsEPPNSD_15_Hash_node_baseEj @626
    _ZNSt10_HashtableINSt7__cxx1112basic_stringIcSt11char_traitsIcESaIcEEESt4pairIKS5_St10shared_ptrI12addressSpaceEESaISB_ENSt8__detail10_Select1stESt8equal_toIS5_ESt4hashIS5_ENSD_18_Mod_range_hashingENSD_20_Default_ranged_hashENSD_20_Prime_rehash_policyENSD_17_Hashtable_traitsILb1ELb0ELb1EEEE21_M_deallocate_bucketsEv @627
    _ZNSt10_HashtableINSt7__cxx1112basic_stringIcSt11char_traitsIcESaIcEEESt4pairIKS5_St10shared_ptrI12addressSpaceEESaISB_ENSt8__detail10_Select1stESt8equal_toIS5_ESt4hashIS5_ENSD_18_Mod_range_hashingENSD_20_Default_ranged_hashENSD_20_Prime_rehash_policyENSD_17_Hashtable_traitsILb1ELb0ELb1EEEE21_M_insert_unique_nodeEjjPNSD_10_Hash_nodeISB_Lb1EEEj @628
    _ZNSt10_HashtableINSt7__cxx1112basic_stringIcSt11char_traitsIcESaIcEEESt4pairIKS5_St10shared_ptrI12addressSpaceEESaISB_ENSt8__detail10_Select1stESt8equal_toIS5_ESt4hashIS5_ENSD_18_Mod_range_hashingENSD_20_Default_ranged_hashENSD_20_Prime_rehash_policyENSD_17_Hashtable_traitsILb1ELb0ELb1EEEE22_M_insert_bucket_beginEjPNSD_10_Hash_nodeISB_Lb1EEE @629
    _ZNSt10_HashtableINSt7__cxx1112basic_stringIcSt11char_traitsIcESaIcEEESt4pairIKS5_St10shared_ptrI12addressSpaceEESaISB_ENSt8__detail10_Select1stESt8equal_toIS5_ESt4hashIS5_ENSD_18_Mod_range_hashingENSD_20_Default_ranged_hashENSD_20_Prime_rehash_policyENSD_17_Hashtable_traitsILb1ELb0ELb1EEEE22_M_remove_bucket_beginEjPNSD_10_Hash_nodeISB_Lb1EEEj @630
    _ZNSt10_HashtableINSt7__cxx1112basic_stringIcSt11char_traitsIcESaIcEEESt4pairIKS5_St10shared_ptrI12addressSpaceEESaISB_ENSt8__detail10_Select1stESt8equal_toIS5_ESt4hashIS5_ENSD_18_Mod_range_hashingENSD_20_Default_ranged_hashENSD_20_Prime_rehash_policyENSD_17_Hashtable_traitsILb1ELb0ELb1EEEE3endEv @631
    _ZNSt10_HashtableINSt7__cxx1112basic_stringIcSt11char_traitsIcESaIcEEESt4pairIKS5_St10shared_ptrI12addressSpaceEESaISB_ENSt8__detail10_Select1stESt8equal_toIS5_ESt4hashIS5_ENSD_18_Mod_range_hashingENSD_20_Default_ranged_hashENSD_20_Prime_rehash_policyENSD_17_Hashtable_traitsILb1ELb0ELb1EEEE4findERS7_ @632
    _ZNSt10_HashtableINSt7__cxx1112basic_stringIcSt11char_traitsIcESaIcEEESt4pairIKS5_St10shared_ptrI12addressSpaceEESaISB_ENSt8__detail10_Select1stESt8equal_toIS5_ESt4hashIS5_ENSD_18_Mod_range_hashingENSD_20_Default_ranged_hashENSD_20_Prime_rehash_policyENSD_17_Hashtable_traitsILb1ELb0ELb1EEEE5clearEv @633
    _ZNSt10_HashtableINSt7__cxx1112basic_stringIcSt11char_traitsIcESaIcEEESt4pairIKS5_St10shared_ptrI12addressSpaceEESaISB_ENSt8__detail10_Select1stESt8equal_toIS5_ESt4hashIS5_ENSD_18_Mod_range_hashingENSD_20_Default_ranged_hashENSD_20_Prime_rehash_policyENSD_17_Hashtable_traitsILb1ELb0ELb1EEEE5eraseERS7_ @634
    _ZNSt10_HashtableINSt7__cxx1112basic_stringIcSt11char_traitsIcESaIcEEESt4pairIKS5_St10shared_ptrI12addressSpaceEESaISB_ENSt8__detail10_Select1stESt8equal_toIS5_ESt4hashIS5_ENSD_18_Mod_range_hashingENSD_20_Default_ranged_hashENSD_20_Prime_rehash_policyENSD_17_Hashtable_traitsILb1ELb0ELb1EEEE8_M_eraseESt17integral_constantIbLb1EERS7_ @635
    _ZNSt10_HashtableINSt7__cxx1112basic_stringIcSt11char_traitsIcESaIcEEESt4pairIKS5_St10shared_ptrI12addressSpaceEESaISB_ENSt8__detail10_Select1stESt8equal_toIS5_ESt4hashIS5_ENSD_18_Mod_range_hashingENSD_20_Default_ranged_hashENSD_20_Prime_rehash_policyENSD_17_Hashtable_traitsILb1ELb0ELb1EEEE8_M_eraseEjPNSD_15_Hash_node_baseEPNSD_10_Hash_nodeISB_Lb1EEE @636
    _ZNSt10_HashtableINSt7__cxx1112basic_stringIcSt11char_traitsIcESaIcEEESt4pairIKS5_St10shared_ptrI12addressSpaceEESaISB_ENSt8__detail10_Select1stESt8equal_toIS5_ESt4hashIS5_ENSD_18_Mod_range_hashingENSD_20_Default_ranged_hashENSD_20_Prime_rehash_policyENSD_17_Hashtable_traitsILb1ELb0ELb1EEEE9_M_rehashEjRKj @637
    _ZNSt10_HashtableINSt7__cxx1112basic_stringIcSt11char_traitsIcESaIcEEESt4pairIKS5_St10shared_ptrI12addressSpaceEESaISB_ENSt8__detail10_Select1stESt8equal_toIS5_ESt4hashIS5_ENSD_18_Mod_range_hashingENSD_20_Default_ranged_hashENSD_20_Prime_rehash_policyENSD_17_Hashtable_traitsILb1ELb0ELb1EEEEC1Ev @638
    _ZNSt10_HashtableINSt7__cxx1112basic_stringIcSt11char_traitsIcESaIcEEESt4pairIKS5_St10shared_ptrI12addressSpaceEESaISB_ENSt8__detail10_Select1stESt8equal_toIS5_ESt4hashIS5_ENSD_18_Mod_range_hashingENSD_20_Default_ranged_hashENSD_20_Prime_rehash_policyENSD_17_Hashtable_traitsILb1ELb0ELb1EEEED1Ev @639
    _ZNSt10_Head_baseILj0EP14pageVisualizerLb0EE7_M_headERKS2_ @640
    _ZNSt10_Head_baseILj0EP14pageVisualizerLb0EE7_M_headERS2_ @641
    _ZNSt10_Head_baseILj0EP14pageVisualizerLb0EEC2Ev @642
    _ZNSt10_Head_baseILj0EP14pageVisualizerLb0EEC2IRS1_EEOT_ @643
    _ZNSt10_Head_baseILj1ESt14default_deleteI14pageVisualizerELb1EE7_M_headERS3_ @644
    _ZNSt10_Head_baseILj1ESt14default_deleteI14pageVisualizerELb1EEC2Ev @645
    _ZNSt10_Head_baseILj1ESt14default_deleteI14pageVisualizerELb1EEC2IS2_EEOT_ @646
    _ZNSt10__pair_getILj0EE5__getIKNSt7__cxx1112basic_stringIcSt11char_traitsIcESaIcEEEP18virtualMemorySpaceEERT_RSt4pairISB_T0_E @647
    _ZNSt10__pair_getILj0EE5__getIKNSt7__cxx1112basic_stringIcSt11char_traitsIcESaIcEEESt10shared_ptrI12addressSpaceEEERT_RSt4pairISC_T0_E @648
    _ZNSt10shared_ptrI10loggedPageEC1ISaIS0_EJRNSt7__cxx1112basic_stringIcSt11char_traitsIcESaIcEEERS_I12addressSpaceEEEESt19_Sp_make_shared_tagRKT_DpOT0_ @649
    _ZNSt10shared_ptrI10loggedPageED1Ev @650
    _ZNSt10shared_ptrI11virtualPageEC1ISaIS0_EJjEEESt19_Sp_make_shared_tagRKT_DpOT0_ @651
    _ZNSt10shared_ptrI11virtualPageED1Ev @652
    _ZNSt10shared_ptrI12addressSpaceEC1EOS1_ @653
    _ZNSt10shared_ptrI12addressSpaceEC1ERKS1_ @654
    _ZNSt10shared_ptrI12addressSpaceEC1Ev @655
    _ZNSt10shared_ptrI12addressSpaceEC1I10loggedPagevEERKS_IT_E @656
    _ZNSt10shared_ptrI12addressSpaceEC1I11virtualPagevEEOS_IT_E @657
    _ZNSt10shared_ptrI12addressSpaceEC1I14applicationMemvEEOS_IT_E @658
    _ZNSt10shared_ptrI12addressSpaceEC1I15memorySpacePagevEEOS_IT_E @659
    _ZNSt10shared_ptrI12addressSpaceEC1I7luaPagevEERKS_IT_E @660
    _ZNSt10shared_ptrI12addressSpaceEC1I8MPA_pagevEERKS_IT_E @661
    _ZNSt10shared_ptrI12addressSpaceEC1I8filePagevEERKS_IT_E @662
    _ZNSt10shared_ptrI12addressSpaceEC1I9multiPagevEERKS_IT_E @663
    _ZNSt10shared_ptrI12addressSpaceED1Ev @664
    _ZNSt10shared_ptrI12addressSpaceEaSEOS1_ @665
    _ZNSt10shared_ptrI12addressSpaceEaSERKS1_ @666
    _ZNSt10shared_ptrI14applicationMemEC1ISaIS0_EJRmRjRPcEEESt19_Sp_make_shared_tagRKT_DpOT0_ @667
    _ZNSt10shared_ptrI14applicationMemED1Ev @668
    _ZNSt10shared_ptrI15memorySpacePageEC1ISaIS0_EJRP18virtualMemorySpaceRPcjEEESt19_Sp_make_shared_tagRKT_DpOT0_ @669
    _ZNSt10shared_ptrI15memorySpacePageED1Ev @670
    _ZNSt10shared_ptrI7luaPageEC1ISaIS0_EJRP9lua_StateRNSt7__cxx1112basic_stringIcSt11char_traitsIcESaIcEEEEEESt19_Sp_make_shared_tagRKT_DpOT0_ @671
    _ZNSt10shared_ptrI7luaPageED1Ev @672
    _ZNSt10shared_ptrI8MPA_pageEC1ISaIS0_EJEEESt19_Sp_make_shared_tagRKT_DpOT0_ @673
    _ZNSt10shared_ptrI8MPA_pageED1Ev @674
    _ZNSt10shared_ptrI8filePageEC1ISaIS0_EJRNSt7__cxx1112basic_stringIcSt11char_traitsIcESaIcEEERjEEESt19_Sp_make_shared_tagRKT_DpOT0_ @675
    _ZNSt10shared_ptrI8filePageED1Ev @676
    _ZNSt10shared_ptrI9multiPageEC1Ev @677
    _ZNSt10shared_ptrI9multiPageEC1I12addressSpaceEERKS_IT_EPS0_ @678
    _ZNSt10shared_ptrI9multiPageEC1ISaIS0_EJEEESt19_Sp_make_shared_tagRKT_DpOT0_ @679
    _ZNSt10shared_ptrI9multiPageED1Ev @680
    _ZNSt10unique_ptrI14pageVisualizerSt14default_deleteIS0_EE11get_deleterEv @681
    _ZNSt10unique_ptrI14pageVisualizerSt14default_deleteIS0_EE5resetEPS0_ @682
    _ZNSt10unique_ptrI14pageVisualizerSt14default_deleteIS0_EE7releaseEv @683
    _ZNSt10unique_ptrI14pageVisualizerSt14default_deleteIS0_EEC1EOS3_ @684
    _ZNSt10unique_ptrI14pageVisualizerSt14default_deleteIS0_EEC1IS2_vEEPS0_ @685
    _ZNSt10unique_ptrI14pageVisualizerSt14default_deleteIS0_EED1Ev @686
    _ZNSt10unique_ptrI14pageVisualizerSt14default_deleteIS0_EEaSEOS3_ @687
    _ZNSt11_Tuple_implILj0EJP14pageVisualizerSt14default_deleteIS0_EEE7_M_headERKS4_ @688
    _ZNSt11_Tuple_implILj0EJP14pageVisualizerSt14default_deleteIS0_EEE7_M_headERS4_ @689
    _ZNSt11_Tuple_implILj0EJP14pageVisualizerSt14default_deleteIS0_EEEC2Ev @690
    _ZNSt11_Tuple_implILj0EJP14pageVisualizerSt14default_deleteIS0_EEEC2IRS1_JS3_EvEEOT_DpOT0_ @691
    _ZNSt11_Tuple_implILj1EJSt14default_deleteI14pageVisualizerEEE7_M_headERS3_ @692
    _ZNSt11_Tuple_implILj1EJSt14default_deleteI14pageVisualizerEEEC2Ev @693
    _ZNSt11_Tuple_implILj1EJSt14default_deleteI14pageVisualizerEEEC2IS2_EEOT_ @694
    _ZNSt11__copy_moveILb0ELb1ESt26random_access_iterator_tagE8__copy_mIPNSt7__cxx1112basic_stringIcSt11char_traitsIcESaIcEEEEEPT_PKSA_SD_SB_ @695
    _ZNSt11__copy_moveILb1ELb0ESt26random_access_iterator_tagE8__copy_mIPSt10shared_ptrI12addressSpaceES6_EET0_T_S8_S7_ @696
    _ZNSt11__copy_moveILb1ELb0ESt26random_access_iterator_tagE8__copy_mIPSt10unique_ptrI14pageVisualizerSt14default_deleteIS4_EES8_EET0_T_SA_S9_ @697
    _ZNSt11__copy_moveILb1ELb1ESt26random_access_iterator_tagE8__copy_mI8quadcordEEPT_PKS4_S7_S5_ @698
    _ZNSt11__copy_moveILb1ELb1ESt26random_access_iterator_tagE8__copy_mIPNSt7__cxx1112basic_stringIcSt11char_traitsIcESaIcEEEEEPT_PKSA_SD_SB_ @699
    _ZNSt11__copy_moveILb1ELb1ESt26random_access_iterator_tagE8__copy_mImEEPT_PKS3_S6_S4_ @700
    _ZNSt11char_traitsIcE7compareEPKcS2_j @701
    _ZNSt12_Destroy_auxILb0EE9__destroyIPSt10shared_ptrI12addressSpaceEEEvT_S6_ @702
    _ZNSt12_Destroy_auxILb0EE9__destroyIPSt10unique_ptrI14pageVisualizerSt14default_deleteIS3_EEEEvT_S8_ @703
    _ZNSt12_Destroy_auxILb1EE9__destroyIP8quadcordEEvT_S4_ @704
    _ZNSt12_Destroy_auxILb1EE9__destroyIPP18memoryPageAccessorEEvT_S5_ @705
    _ZNSt12_Destroy_auxILb1EE9__destroyIPPNSt7__cxx1112basic_stringIcSt11char_traitsIcESaIcEEEEEvT_SA_ @706
    _ZNSt12_Destroy_auxILb1EE9__destroyIPmEEvT_S3_ @707
    _ZNSt12_Vector_baseI8quadcordSaIS0_EE11_M_allocateEj @708
    _ZNSt12_Vector_baseI8quadcordSaIS0_EE12_Vector_implC1Ev @709
    _ZNSt12_Vector_baseI8quadcordSaIS0_EE12_Vector_implD1Ev @710
    _ZNSt12_Vector_baseI8quadcordSaIS0_EE13_M_deallocateEPS0_j @711
    _ZNSt12_Vector_baseI8quadcordSaIS0_EE19_M_get_Tp_allocatorEv @712
    _ZNSt12_Vector_baseI8quadcordSaIS0_EEC2Ev @713
    _ZNSt12_Vector_baseI8quadcordSaIS0_EED2Ev @714
    _ZNSt12_Vector_baseIP18memoryPageAccessorSaIS1_EE12_Vector_implC1Ev @715
    _ZNSt12_Vector_baseIP18memoryPageAccessorSaIS1_EE12_Vector_implD1Ev @716
    _ZNSt12_Vector_baseIP18memoryPageAccessorSaIS1_EE13_M_deallocateEPS1_j @717
    _ZNSt12_Vector_baseIP18memoryPageAccessorSaIS1_EE19_M_get_Tp_allocatorEv @718
    _ZNSt12_Vector_baseIP18memoryPageAccessorSaIS1_EEC2Ev @719
    _ZNSt12_Vector_baseIP18memoryPageAccessorSaIS1_EED2Ev @720
    _ZNSt12_Vector_baseIPNSt7__cxx1112basic_stringIcSt11char_traitsIcESaIcEEESaIS6_EE11_M_allocateEj @721
    _ZNSt12_Vector_baseIPNSt7__cxx1112basic_stringIcSt11char_traitsIcESaIcEEESaIS6_EE12_Vector_implC1ERKS7_ @722
    _ZNSt12_Vector_baseIPNSt7__cxx1112basic_stringIcSt11char_traitsIcESaIcEEESaIS6_EE12_Vector_implC1Ev @723
    _ZNSt12_Vector_baseIPNSt7__cxx1112basic_stringIcSt11char_traitsIcESaIcEEESaIS6_EE12_Vector_implD1Ev @724
    _ZNSt12_Vector_baseIPNSt7__cxx1112basic_stringIcSt11char_traitsIcESaIcEEESaIS6_EE13_M_deallocateEPS6_j @725
    _ZNSt12_Vector_baseIPNSt7__cxx1112basic_stringIcSt11char_traitsIcESaIcEEESaIS6_EE17_M_create_storageEj @726
    _ZNSt12_Vector_baseIPNSt7__cxx1112basic_stringIcSt11char_traitsIcESaIcEEESaIS6_EE19_M_get_Tp_allocatorEv @727
    _ZNSt12_Vector_baseIPNSt7__cxx1112basic_stringIcSt11char_traitsIcESaIcEEESaIS6_EEC2EjRKS7_ @728
    _ZNSt12_Vector_baseIPNSt7__cxx1112basic_stringIcSt11char_traitsIcESaIcEEESaIS6_EEC2Ev @729
    _ZNSt12_Vector_baseIPNSt7__cxx1112basic_stringIcSt11char_traitsIcESaIcEEESaIS6_EED2Ev @730
    _ZNSt12_Vector_baseISt10shared_ptrI12addressSpaceESaIS2_EE11_M_allocateEj @731
    _ZNSt12_Vector_baseISt10shared_ptrI12addressSpaceESaIS2_EE12_Vector_implC1Ev @732
    _ZNSt12_Vector_baseISt10shared_ptrI12addressSpaceESaIS2_EE12_Vector_implD1Ev @733
    _ZNSt12_Vector_baseISt10shared_ptrI12addressSpaceESaIS2_EE13_M_deallocateEPS2_j @734
    _ZNSt12_Vector_baseISt10shared_ptrI12addressSpaceESaIS2_EE19_M_get_Tp_allocatorEv @735
    _ZNSt12_Vector_baseISt10shared_ptrI12addressSpaceESaIS2_EEC2Ev @736
    _ZNSt12_Vector_baseISt10shared_ptrI12addressSpaceESaIS2_EED2Ev @737
    _ZNSt12_Vector_baseISt10unique_ptrI14pageVisualizerSt14default_deleteIS1_EESaIS4_EE11_M_allocateEj @738
    _ZNSt12_Vector_baseISt10unique_ptrI14pageVisualizerSt14default_deleteIS1_EESaIS4_EE12_Vector_implC1Ev @739
    _ZNSt12_Vector_baseISt10unique_ptrI14pageVisualizerSt14default_deleteIS1_EESaIS4_EE12_Vector_implD1Ev @740
    _ZNSt12_Vector_baseISt10unique_ptrI14pageVisualizerSt14default_deleteIS1_EESaIS4_EE13_M_deallocateEPS4_j @741
    _ZNSt12_Vector_baseISt10unique_ptrI14pageVisualizerSt14default_deleteIS1_EESaIS4_EE19_M_get_Tp_allocatorEv @742
    _ZNSt12_Vector_baseISt10unique_ptrI14pageVisualizerSt14default_deleteIS1_EESaIS4_EEC2Ev @743
    _ZNSt12_Vector_baseISt10unique_ptrI14pageVisualizerSt14default_deleteIS1_EESaIS4_EED2Ev @744
    _ZNSt12_Vector_baseImSaImEE11_M_allocateEj @745
    _ZNSt12_Vector_baseImSaImEE12_Vector_implC1Ev @746
    _ZNSt12_Vector_baseImSaImEE12_Vector_implD1Ev @747
    _ZNSt12_Vector_baseImSaImEE13_M_deallocateEPmj @748
    _ZNSt12_Vector_baseImSaImEE19_M_get_Tp_allocatorEv @749
    _ZNSt12_Vector_baseImSaImEEC2Ev @750
    _ZNSt12_Vector_baseImSaImEED2Ev @751
    _ZNSt12__shared_ptrI10loggedPageLN9__gnu_cxx12_Lock_policyE2EE31_M_enable_shared_from_this_withIS0_S0_EENSt9enable_ifIXntsrNS3_15__has_esft_baseIT0_vEE5valueEvE4typeEPT_ @752
    _ZNSt12__shared_ptrI10loggedPageLN9__gnu_cxx12_Lock_policyE2EEC2ISaIS0_EJRNSt7__cxx1112basic_stringIcSt11char_traitsIcESaIcEEERSt10shared_ptrI12addressSpaceEEEESt19_Sp_make_shared_tagRKT_DpOT0_ @753
    _ZNSt12__shared_ptrI10loggedPageLN9__gnu_cxx12_Lock_policyE2EED2Ev @754
    _ZNSt12__shared_ptrI11virtualPageLN9__gnu_cxx12_Lock_policyE2EE31_M_enable_shared_from_this_withIS0_S0_EENSt9enable_ifIXntsrNS3_15__has_esft_baseIT0_vEE5valueEvE4typeEPT_ @755
    _ZNSt12__shared_ptrI11virtualPageLN9__gnu_cxx12_Lock_policyE2EEC2ISaIS0_EJjEEESt19_Sp_make_shared_tagRKT_DpOT0_ @756
    _ZNSt12__shared_ptrI11virtualPageLN9__gnu_cxx12_Lock_policyE2EED2Ev @757
    _ZNSt12__shared_ptrI12addressSpaceLN9__gnu_cxx12_Lock_policyE2EE4swapERS3_ @758
    _ZNSt12__shared_ptrI12addressSpaceLN9__gnu_cxx12_Lock_policyE2EEC1EOS3_ @759
    _ZNSt12__shared_ptrI12addressSpaceLN9__gnu_cxx12_Lock_policyE2EEC2EOS3_ @760
    _ZNSt12__shared_ptrI12addressSpaceLN9__gnu_cxx12_Lock_policyE2EEC2ERKS3_ @761
    _ZNSt12__shared_ptrI12addressSpaceLN9__gnu_cxx12_Lock_policyE2EEC2Ev @762
    _ZNSt12__shared_ptrI12addressSpaceLN9__gnu_cxx12_Lock_policyE2EEC2I10loggedPagevEERKS_IT_LS2_2EE @763
    _ZNSt12__shared_ptrI12addressSpaceLN9__gnu_cxx12_Lock_policyE2EEC2I11virtualPagevEEOS_IT_LS2_2EE @764
    _ZNSt12__shared_ptrI12addressSpaceLN9__gnu_cxx12_Lock_policyE2EEC2I14applicationMemvEEOS_IT_LS2_2EE @765
    _ZNSt12__shared_ptrI12addressSpaceLN9__gnu_cxx12_Lock_policyE2EEC2I15memorySpacePagevEEOS_IT_LS2_2EE @766
    _ZNSt12__shared_ptrI12addressSpaceLN9__gnu_cxx12_Lock_policyE2EEC2I7luaPagevEERKS_IT_LS2_2EE @767
    _ZNSt12__shared_ptrI12addressSpaceLN9__gnu_cxx12_Lock_policyE2EEC2I8MPA_pagevEERKS_IT_LS2_2EE @768
    _ZNSt12__shared_ptrI12addressSpaceLN9__gnu_cxx12_Lock_policyE2EEC2I8filePagevEERKS_IT_LS2_2EE @769
    _ZNSt12__shared_ptrI12addressSpaceLN9__gnu_cxx12_Lock_policyE2EEC2I9multiPagevEERKS_IT_LS2_2EE @770
    _ZNSt12__shared_ptrI12addressSpaceLN9__gnu_cxx12_Lock_policyE2EED1Ev @771
    _ZNSt12__shared_ptrI12addressSpaceLN9__gnu_cxx12_Lock_policyE2EED2Ev @772
    _ZNSt12__shared_ptrI12addressSpaceLN9__gnu_cxx12_Lock_policyE2EEaSEOS3_ @773
    _ZNSt12__shared_ptrI12addressSpaceLN9__gnu_cxx12_Lock_policyE2EEaSERKS3_ @774
    _ZNSt12__shared_ptrI14applicationMemLN9__gnu_cxx12_Lock_policyE2EE31_M_enable_shared_from_this_withIS0_S0_EENSt9enable_ifIXntsrNS3_15__has_esft_baseIT0_vEE5valueEvE4typeEPT_ @775
    _ZNSt12__shared_ptrI14applicationMemLN9__gnu_cxx12_Lock_policyE2EEC2ISaIS0_EJRmRjRPcEEESt19_Sp_make_shared_tagRKT_DpOT0_ @776
    _ZNSt12__shared_ptrI14applicationMemLN9__gnu_cxx12_Lock_policyE2EED2Ev @777
    _ZNSt12__shared_ptrI15memorySpacePageLN9__gnu_cxx12_Lock_policyE2EE31_M_enable_shared_from_this_withIS0_S0_EENSt9enable_ifIXntsrNS3_15__has_esft_baseIT0_vEE5valueEvE4typeEPT_ @778
    _ZNSt12__shared_ptrI15memorySpacePageLN9__gnu_cxx12_Lock_policyE2EEC2ISaIS0_EJRP18virtualMemorySpaceRPcjEEESt19_Sp_make_shared_tagRKT_DpOT0_ @779
    _ZNSt12__shared_ptrI15memorySpacePageLN9__gnu_cxx12_Lock_policyE2EED2Ev @780
    _ZNSt12__shared_ptrI7luaPageLN9__gnu_cxx12_Lock_policyE2EE31_M_enable_shared_from_this_withIS0_S0_EENSt9enable_ifIXntsrNS3_15__has_esft_baseIT0_vEE5valueEvE4typeEPT_ @781
    _ZNSt12__shared_ptrI7luaPageLN9__gnu_cxx12_Lock_policyE2EEC2ISaIS0_EJRP9lua_StateRNSt7__cxx1112basic_stringIcSt11char_traitsIcESaIcEEEEEESt19_Sp_make_shared_tagRKT_DpOT0_ @782
    _ZNSt12__shared_ptrI7luaPageLN9__gnu_cxx12_Lock_policyE2EED2Ev @783
    _ZNSt12__shared_ptrI8MPA_pageLN9__gnu_cxx12_Lock_policyE2EE31_M_enable_shared_from_this_withIS0_S0_EENSt9enable_ifIXntsrNS3_15__has_esft_baseIT0_vEE5valueEvE4typeEPT_ @784
    _ZNSt12__shared_ptrI8MPA_pageLN9__gnu_cxx12_Lock_policyE2EEC2ISaIS0_EJEEESt19_Sp_make_shared_tagRKT_DpOT0_ @785
    _ZNSt12__shared_ptrI8MPA_pageLN9__gnu_cxx12_Lock_policyE2EED2Ev @786
    _ZNSt12__shared_ptrI8filePageLN9__gnu_cxx12_Lock_policyE2EE31_M_enable_shared_from_this_withIS0_S0_EENSt9enable_ifIXntsrNS3_15__has_esft_baseIT0_vEE5valueEvE4typeEPT_ @787
    _ZNSt12__shared_ptrI8filePageLN9__gnu_cxx12_Lock_policyE2EEC2ISaIS0_EJRNSt7__cxx1112basic_stringIcSt11char_traitsIcESaIcEEERjEEESt19_Sp_make_shared_tagRKT_DpOT0_ @788
    _ZNSt12__shared_ptrI8filePageLN9__gnu_cxx12_Lock_policyE2EED2Ev @789
    _ZNSt12__shared_ptrI9multiPageLN9__gnu_cxx12_Lock_policyE2EE31_M_enable_shared_from_this_withIS0_S0_EENSt9enable_ifIXntsrNS3_15__has_esft_baseIT0_vEE5valueEvE4typeEPT_ @790
    _ZNSt12__shared_ptrI9multiPageLN9__gnu_cxx12_Lock_policyE2EEC2Ev @791
    _ZNSt12__shared_ptrI9multiPageLN9__gnu_cxx12_Lock_policyE2EEC2I12addressSpaceEERKS_IT_LS2_2EEPS0_ @792
    _ZNSt12__shared_ptrI9multiPageLN9__gnu_cxx12_Lock_policyE2EEC2ISaIS0_EJEEESt19_Sp_make_shared_tagRKT_DpOT0_ @793
    _ZNSt12__shared_ptrI9multiPageLN9__gnu_cxx12_Lock_policyE2EED2Ev @794
    _ZNSt13move_iteratorIP8quadcordEC1ES1_ @795
    _ZNSt13move_iteratorIPPNSt7__cxx1112basic_stringIcSt11char_traitsIcESaIcEEEEC1ES7_ @796
    _ZNSt13move_iteratorIPSt10shared_ptrI12addressSpaceEEC1ES3_ @797
    _ZNSt13move_iteratorIPSt10shared_ptrI12addressSpaceEEppEv @798
    _ZNSt13move_iteratorIPSt10unique_ptrI14pageVisualizerSt14default_deleteIS1_EEEC1ES5_ @799
    _ZNSt13move_iteratorIPSt10unique_ptrI14pageVisualizerSt14default_deleteIS1_EEEppEv @800
    _ZNSt13move_iteratorIPmEC1ES0_ @801
    _ZNSt13unordered_mapINSt7__cxx1112basic_stringIcSt11char_traitsIcESaIcEEEP18virtualMemorySpaceSt4hashIS5_ESt8equal_toIS5_ESaISt4pairIKS5_S7_EEE2atERSD_ @802
    _ZNSt13unordered_mapINSt7__cxx1112basic_stringIcSt11char_traitsIcESaIcEEEP18virtualMemorySpaceSt4hashIS5_ESt8equal_toIS5_ESaISt4pairIKS5_S7_EEE3endEv @803
    _ZNSt13unordered_mapINSt7__cxx1112basic_stringIcSt11char_traitsIcESaIcEEEP18virtualMemorySpaceSt4hashIS5_ESt8equal_toIS5_ESaISt4pairIKS5_S7_EEE4findERSD_ @804
    _ZNSt13unordered_mapINSt7__cxx1112basic_stringIcSt11char_traitsIcESaIcEEEP18virtualMemorySpaceSt4hashIS5_ESt8equal_toIS5_ESaISt4pairIKS5_S7_EEE5eraseERSD_ @805
    _ZNSt13unordered_mapINSt7__cxx1112basic_stringIcSt11char_traitsIcESaIcEEEP18virtualMemorySpaceSt4hashIS5_ESt8equal_toIS5_ESaISt4pairIKS5_S7_EEE6insertIRSC_IS5_S7_EvEESC_INSt8__detail14_Node_iteratorISE_Lb0ELb1EEEbEOT_ @806
    _ZNSt13unordered_mapINSt7__cxx1112basic_stringIcSt11char_traitsIcESaIcEEEP18virtualMemorySpaceSt4hashIS5_ESt8equal_toIS5_ESaISt4pairIKS5_S7_EEEC1Ev @807
    _ZNSt13unordered_mapINSt7__cxx1112basic_stringIcSt11char_traitsIcESaIcEEEP18virtualMemorySpaceSt4hashIS5_ESt8equal_toIS5_ESaISt4pairIKS5_S7_EEED1Ev @808
    _ZNSt13unordered_mapINSt7__cxx1112basic_stringIcSt11char_traitsIcESaIcEEESt10shared_ptrI12addressSpaceESt4hashIS5_ESt8equal_toIS5_ESaISt4pairIKS5_S8_EEE2atERSE_ @809
    _ZNSt13unordered_mapINSt7__cxx1112basic_stringIcSt11char_traitsIcESaIcEEESt10shared_ptrI12addressSpaceESt4hashIS5_ESt8equal_toIS5_ESaISt4pairIKS5_S8_EEE3endEv @810
    _ZNSt13unordered_mapINSt7__cxx1112basic_stringIcSt11char_traitsIcESaIcEEESt10shared_ptrI12addressSpaceESt4hashIS5_ESt8equal_toIS5_ESaISt4pairIKS5_S8_EEE4findERSE_ @811
    _ZNSt13unordered_mapINSt7__cxx1112basic_stringIcSt11char_traitsIcESaIcEEESt10shared_ptrI12addressSpaceESt4hashIS5_ESt8equal_toIS5_ESaISt4pairIKS5_S8_EEE5eraseERSE_ @812
    _ZNSt13unordered_mapINSt7__cxx1112basic_stringIcSt11char_traitsIcESaIcEEESt10shared_ptrI12addressSpaceESt4hashIS5_ESt8equal_toIS5_ESaISt4pairIKS5_S8_EEE6insertIRSD_IS5_S8_EvEESD_INSt8__detail14_Node_iteratorISF_Lb0ELb1EEEbEOT_ @813
    _ZNSt13unordered_mapINSt7__cxx1112basic_stringIcSt11char_traitsIcESaIcEEESt10shared_ptrI12addressSpaceESt4hashIS5_ESt8equal_toIS5_ESaISt4pairIKS5_S8_EEEC1Ev @814
    _ZNSt13unordered_mapINSt7__cxx1112basic_stringIcSt11char_traitsIcESaIcEEESt10shared_ptrI12addressSpaceESt4hashIS5_ESt8equal_toIS5_ESaISt4pairIKS5_S8_EEED1Ev @815
    _ZNSt14_Sp_ebo_helperILi0ESaI10loggedPageELb1EE6_S_getERS2_ @816
    _ZNSt14_Sp_ebo_helperILi0ESaI10loggedPageELb1EEC2ERKS1_ @817
    _ZNSt14_Sp_ebo_helperILi0ESaI10loggedPageELb1EED2Ev @818
    _ZNSt14_Sp_ebo_helperILi0ESaI11virtualPageELb1EE6_S_getERS2_ @819
    _ZNSt14_Sp_ebo_helperILi0ESaI11virtualPageELb1EEC2ERKS1_ @820
    _ZNSt14_Sp_ebo_helperILi0ESaI11virtualPageELb1EED2Ev @821
    _ZNSt14_Sp_ebo_helperILi0ESaI14applicationMemELb1EE6_S_getERS2_ @822
    _ZNSt14_Sp_ebo_helperILi0ESaI14applicationMemELb1EEC2ERKS1_ @823
    _ZNSt14_Sp_ebo_helperILi0ESaI14applicationMemELb1EED2Ev @824
    _ZNSt14_Sp_ebo_helperILi0ESaI15memorySpacePageELb1EE6_S_getERS2_ @825
    _ZNSt14_Sp_ebo_helperILi0ESaI15memorySpacePageELb1EEC2ERKS1_ @826
    _ZNSt14_Sp_ebo_helperILi0ESaI15memorySpacePageELb1EED2Ev @827
    _ZNSt14_Sp_ebo_helperILi0ESaI7luaPageELb1EE6_S_getERS2_ @828
    _ZNSt14_Sp_ebo_helperILi0ESaI7luaPageELb1EEC2ERKS1_ @829
    _ZNSt14_Sp_ebo_helperILi0ESaI7luaPageELb1EED2Ev @830
    _ZNSt14_Sp_ebo_helperILi0ESaI8MPA_pageELb1EE6_S_getERS2_ @831
    _ZNSt14_Sp_ebo_helperILi0ESaI8MPA_pageELb1EEC2ERKS1_ @832
    _ZNSt14_Sp_ebo_helperILi0ESaI8MPA_pageELb1EED2Ev @833
    _ZNSt14_Sp_ebo_helperILi0ESaI8filePageELb1EE6_S_getERS2_ @834
    _ZNSt14_Sp_ebo_helperILi0ESaI8filePageELb1EEC2ERKS1_ @835
    _ZNSt14_Sp_ebo_helperILi0ESaI8filePageELb1EED2Ev @836
    _ZNSt14_Sp_ebo_helperILi0ESaI9multiPageELb1EE6_S_getERS2_ @837
    _ZNSt14_Sp_ebo_helperILi0ESaI9multiPageELb1EEC2ERKS1_ @838
    _ZNSt14_Sp_ebo_helperILi0ESaI9multiPageELb1EED2Ev @839
    _ZNSt14__shared_countILN9__gnu_cxx12_Lock_policyE2EE7_M_swapERS2_ @840
    _ZNSt14__shared_countILN9__gnu_cxx12_Lock_policyE2EEC1ERKS2_ @841
    _ZNSt14__shared_countILN9__gnu_cxx12_Lock_policyE2EEC1Ev @842
    _ZNSt14__shared_countILN9__gnu_cxx12_Lock_policyE2EEC1I10loggedPageSaIS4_EJRNSt7__cxx1112basic_stringIcSt11char_traitsIcESaIcEEERSt10shared_ptrI12addressSpaceEEEESt19_Sp_make_shared_tagPT_RKT0_DpOT1_ @843
    _ZNSt14__shared_countILN9__gnu_cxx12_Lock_policyE2EEC1I11virtualPageSaIS4_EJjEEESt19_Sp_make_shared_tagPT_RKT0_DpOT1_ @844
    _ZNSt14__shared_countILN9__gnu_cxx12_Lock_policyE2EEC1I14applicationMemSaIS4_EJRmRjRPcEEESt19_Sp_make_shared_tagPT_RKT0_DpOT1_ @845
    _ZNSt14__shared_countILN9__gnu_cxx12_Lock_policyE2EEC1I15memorySpacePageSaIS4_EJRP18virtualMemorySpaceRPcjEEESt19_Sp_make_shared_tagPT_RKT0_DpOT1_ @846
    _ZNSt14__shared_countILN9__gnu_cxx12_Lock_policyE2EEC1I7luaPageSaIS4_EJRP9lua_StateRNSt7__cxx1112basic_stringIcSt11char_traitsIcESaIcEEEEEESt19_Sp_make_shared_tagPT_RKT0_DpOT1_ @847
    _ZNSt14__shared_countILN9__gnu_cxx12_Lock_policyE2EEC1I8MPA_pageSaIS4_EJEEESt19_Sp_make_shared_tagPT_RKT0_DpOT1_ @848
    _ZNSt14__shared_countILN9__gnu_cxx12_Lock_policyE2EEC1I8filePageSaIS4_EJRNSt7__cxx1112basic_stringIcSt11char_traitsIcESaIcEEERjEEESt19_Sp_make_shared_tagPT_RKT0_DpOT1_ @849
    _ZNSt14__shared_countILN9__gnu_cxx12_Lock_policyE2EEC1I9multiPageSaIS4_EJEEESt19_Sp_make_shared_tagPT_RKT0_DpOT1_ @850
    _ZNSt14__shared_countILN9__gnu_cxx12_Lock_policyE2EED1Ev @851
    _ZNSt14__shared_countILN9__gnu_cxx12_Lock_policyE2EEaSERKS2_ @852
    _ZNSt14pointer_traitsIPNSt8__detail10_Hash_nodeISt4pairIKNSt7__cxx1112basic_stringIcSt11char_traitsIcESaIcEEEP18virtualMemorySpaceELb1EEEE10pointer_toERSD_ @853
    _ZNSt14pointer_traitsIPNSt8__detail10_Hash_nodeISt4pairIKNSt7__cxx1112basic_stringIcSt11char_traitsIcESaIcEEESt10shared_ptrI12addressSpaceEELb1EEEE10pointer_toERSE_ @854
    _ZNSt14pointer_traitsIPPNSt8__detail15_Hash_node_baseEE10pointer_toERS2_ @855
    _ZNSt15__allocated_ptrISaISt23_Sp_counted_ptr_inplaceI10loggedPageSaIS1_ELN9__gnu_cxx12_Lock_policyE2EEEE3getEv @856
    _ZNSt15__allocated_ptrISaISt23_Sp_counted_ptr_inplaceI10loggedPageSaIS1_ELN9__gnu_cxx12_Lock_policyE2EEEEC1ERS6_PS5_ @857
    _ZNSt15__allocated_ptrISaISt23_Sp_counted_ptr_inplaceI10loggedPageSaIS1_ELN9__gnu_cxx12_Lock_policyE2EEEED1Ev @858
    _ZNSt15__allocated_ptrISaISt23_Sp_counted_ptr_inplaceI10loggedPageSaIS1_ELN9__gnu_cxx12_Lock_policyE2EEEEaSEDn @859
    _ZNSt15__allocated_ptrISaISt23_Sp_counted_ptr_inplaceI11virtualPageSaIS1_ELN9__gnu_cxx12_Lock_policyE2EEEE3getEv @860
    _ZNSt15__allocated_ptrISaISt23_Sp_counted_ptr_inplaceI11virtualPageSaIS1_ELN9__gnu_cxx12_Lock_policyE2EEEEC1ERS6_PS5_ @861
    _ZNSt15__allocated_ptrISaISt23_Sp_counted_ptr_inplaceI11virtualPageSaIS1_ELN9__gnu_cxx12_Lock_policyE2EEEED1Ev @862
    _ZNSt15__allocated_ptrISaISt23_Sp_counted_ptr_inplaceI11virtualPageSaIS1_ELN9__gnu_cxx12_Lock_policyE2EEEEaSEDn @863
    _ZNSt15__allocated_ptrISaISt23_Sp_counted_ptr_inplaceI14applicationMemSaIS1_ELN9__gnu_cxx12_Lock_policyE2EEEE3getEv @864
    _ZNSt15__allocated_ptrISaISt23_Sp_counted_ptr_inplaceI14applicationMemSaIS1_ELN9__gnu_cxx12_Lock_policyE2EEEEC1ERS6_PS5_ @865
    _ZNSt15__allocated_ptrISaISt23_Sp_counted_ptr_inplaceI14applicationMemSaIS1_ELN9__gnu_cxx12_Lock_policyE2EEEED1Ev @866
    _ZNSt15__allocated_ptrISaISt23_Sp_counted_ptr_inplaceI14applicationMemSaIS1_ELN9__gnu_cxx12_Lock_policyE2EEEEaSEDn @867
    _ZNSt15__allocated_ptrISaISt23_Sp_counted_ptr_inplaceI15memorySpacePageSaIS1_ELN9__gnu_cxx12_Lock_policyE2EEEE3getEv @868
    _ZNSt15__allocated_ptrISaISt23_Sp_counted_ptr_inplaceI15memorySpacePageSaIS1_ELN9__gnu_cxx12_Lock_policyE2EEEEC1ERS6_PS5_ @869
    _ZNSt15__allocated_ptrISaISt23_Sp_counted_ptr_inplaceI15memorySpacePageSaIS1_ELN9__gnu_cxx12_Lock_policyE2EEEED1Ev @870
    _ZNSt15__allocated_ptrISaISt23_Sp_counted_ptr_inplaceI15memorySpacePageSaIS1_ELN9__gnu_cxx12_Lock_policyE2EEEEaSEDn @871
    _ZNSt15__allocated_ptrISaISt23_Sp_counted_ptr_inplaceI7luaPageSaIS1_ELN9__gnu_cxx12_Lock_policyE2EEEE3getEv @872
    _ZNSt15__allocated_ptrISaISt23_Sp_counted_ptr_inplaceI7luaPageSaIS1_ELN9__gnu_cxx12_Lock_policyE2EEEEC1ERS6_PS5_ @873
    _ZNSt15__allocated_ptrISaISt23_Sp_counted_ptr_inplaceI7luaPageSaIS1_ELN9__gnu_cxx12_Lock_policyE2EEEED1Ev @874
    _ZNSt15__allocated_ptrISaISt23_Sp_counted_ptr_inplaceI7luaPageSaIS1_ELN9__gnu_cxx12_Lock_policyE2EEEEaSEDn @875
    _ZNSt15__allocated_ptrISaISt23_Sp_counted_ptr_inplaceI8MPA_pageSaIS1_ELN9__gnu_cxx12_Lock_policyE2EEEE3getEv @876
    _ZNSt15__allocated_ptrISaISt23_Sp_counted_ptr_inplaceI8MPA_pageSaIS1_ELN9__gnu_cxx12_Lock_policyE2EEEEC1ERS6_PS5_ @877
    _ZNSt15__allocated_ptrISaISt23_Sp_counted_ptr_inplaceI8MPA_pageSaIS1_ELN9__gnu_cxx12_Lock_policyE2EEEED1Ev @878
    _ZNSt15__allocated_ptrISaISt23_Sp_counted_ptr_inplaceI8MPA_pageSaIS1_ELN9__gnu_cxx12_Lock_policyE2EEEEaSEDn @879
    _ZNSt15__allocated_ptrISaISt23_Sp_counted_ptr_inplaceI8filePageSaIS1_ELN9__gnu_cxx12_Lock_policyE2EEEE3getEv @880
    _ZNSt15__allocated_ptrISaISt23_Sp_counted_ptr_inplaceI8filePageSaIS1_ELN9__gnu_cxx12_Lock_policyE2EEEEC1ERS6_PS5_ @881
    _ZNSt15__allocated_ptrISaISt23_Sp_counted_ptr_inplaceI8filePageSaIS1_ELN9__gnu_cxx12_Lock_policyE2EEEED1Ev @882
    _ZNSt15__allocated_ptrISaISt23_Sp_counted_ptr_inplaceI8filePageSaIS1_ELN9__gnu_cxx12_Lock_policyE2EEEEaSEDn @883
    _ZNSt15__allocated_ptrISaISt23_Sp_counted_ptr_inplaceI9multiPageSaIS1_ELN9__gnu_cxx12_Lock_policyE2EEEE3getEv @884
    _ZNSt15__allocated_ptrISaISt23_Sp_counted_ptr_inplaceI9multiPageSaIS1_ELN9__gnu_cxx12_Lock_policyE2EEEEC1ERS6_PS5_ @885
    _ZNSt15__allocated_ptrISaISt23_Sp_counted_ptr_inplaceI9multiPageSaIS1_ELN9__gnu_cxx12_Lock_policyE2EEEED1Ev @886
    _ZNSt15__allocated_ptrISaISt23_Sp_counted_ptr_inplaceI9multiPageSaIS1_ELN9__gnu_cxx12_Lock_policyE2EEEEaSEDn @887
    _ZNSt15__uniq_ptr_implI14pageVisualizerSt14default_deleteIS0_EE10_M_deleterEv @888
    _ZNSt15__uniq_ptr_implI14pageVisualizerSt14default_deleteIS0_EE6_M_ptrEv @889
    _ZNSt15__uniq_ptr_implI14pageVisualizerSt14default_deleteIS0_EEC1EPS0_ @890
    _ZNSt15__uniq_ptr_implI14pageVisualizerSt14default_deleteIS0_EEC1IS2_EEPS0_OT_ @891
    _ZNSt16_Sp_counted_baseILN9__gnu_cxx12_Lock_policyE2EE10_M_destroyEv @892
    _ZNSt16_Sp_counted_baseILN9__gnu_cxx12_Lock_policyE2EE10_M_releaseEv @893
    _ZNSt16_Sp_counted_baseILN9__gnu_cxx12_Lock_policyE2EE15_M_add_ref_copyEv @894
    _ZNSt16_Sp_counted_baseILN9__gnu_cxx12_Lock_policyE2EEC2Ev @895
    _ZNSt16_Sp_counted_baseILN9__gnu_cxx12_Lock_policyE2EED2Ev @896
    _ZNSt16allocator_traitsISaI10loggedPageEE7destroyIS0_EEvRS1_PT_ @897
    _ZNSt16allocator_traitsISaI10loggedPageEE9constructIS0_JRNSt7__cxx1112basic_stringIcSt11char_traitsIcESaIcEEERSt10shared_ptrI12addressSpaceEEEEvRS1_PT_DpOT0_ @898
    _ZNSt16allocator_traitsISaI11virtualPageEE7destroyIS0_EEvRS1_PT_ @899
    _ZNSt16allocator_traitsISaI11virtualPageEE9constructIS0_JjEEEvRS1_PT_DpOT0_ @900
    _ZNSt16allocator_traitsISaI14applicationMemEE7destroyIS0_EEvRS1_PT_ @901
    _ZNSt16allocator_traitsISaI14applicationMemEE9constructIS0_JRmRjRPcEEEvRS1_PT_DpOT0_ @902
    _ZNSt16allocator_traitsISaI15memorySpacePageEE7destroyIS0_EEvRS1_PT_ @903
    _ZNSt16allocator_traitsISaI15memorySpacePageEE9constructIS0_JRP18virtualMemorySpaceRPcjEEEvRS1_PT_DpOT0_ @904
    _ZNSt16allocator_traitsISaI7luaPageEE7destroyIS0_EEvRS1_PT_ @905
    _ZNSt16allocator_traitsISaI7luaPageEE9constructIS0_JRP9lua_StateRNSt7__cxx1112basic_stringIcSt11char_traitsIcESaIcEEEEEEvRS1_PT_DpOT0_ @906
    _ZNSt16allocator_traitsISaI8MPA_pageEE7destroyIS0_EEvRS1_PT_ @907
    _ZNSt16allocator_traitsISaI8MPA_pageEE9constructIS0_JEEEvRS1_PT_DpOT0_ @908
    _ZNSt16allocator_traitsISaI8filePageEE7destroyIS0_EEvRS1_PT_ @909
    _ZNSt16allocator_traitsISaI8filePageEE9constructIS0_JRNSt7__cxx1112basic_stringIcSt11char_traitsIcESaIcEEERjEEEvRS1_PT_DpOT0_ @910
    _ZNSt16allocator_traitsISaI8quadcordEE10deallocateERS1_PS0_j @911
    _ZNSt16allocator_traitsISaI8quadcordEE7destroyIS0_EEvRS1_PT_ @912
    _ZNSt16allocator_traitsISaI8quadcordEE8allocateERS1_j @913
    _ZNSt16allocator_traitsISaI8quadcordEE8max_sizeERKS1_ @914
    _ZNSt16allocator_traitsISaI8quadcordEE9constructIS0_JRKS0_EEEvRS1_PT_DpOT0_ @915
    _ZNSt16allocator_traitsISaI9multiPageEE7destroyIS0_EEvRS1_PT_ @916
    _ZNSt16allocator_traitsISaI9multiPageEE9constructIS0_JEEEvRS1_PT_DpOT0_ @917
    _ZNSt16allocator_traitsISaINSt8__detail10_Hash_nodeISt4pairIKNSt7__cxx1112basic_stringIcSt11char_traitsIcESaIcEEEP18virtualMemorySpaceELb1EEEEE10deallocateERSE_PSD_j @918
    _ZNSt16allocator_traitsISaINSt8__detail10_Hash_nodeISt4pairIKNSt7__cxx1112basic_stringIcSt11char_traitsIcESaIcEEEP18virtualMemorySpaceELb1EEEEE7destroyISC_EEvRSE_PT_ @919
    _ZNSt16allocator_traitsISaINSt8__detail10_Hash_nodeISt4pairIKNSt7__cxx1112basic_stringIcSt11char_traitsIcESaIcEEEP18virtualMemorySpaceELb1EEEEE8allocateERSE_j @920
    _ZNSt16allocator_traitsISaINSt8__detail10_Hash_nodeISt4pairIKNSt7__cxx1112basic_stringIcSt11char_traitsIcESaIcEEEP18virtualMemorySpaceELb1EEEEE9constructISC_JRS2_IS8_SB_EEEEvRSE_PT_DpOT0_ @921
    _ZNSt16allocator_traitsISaINSt8__detail10_Hash_nodeISt4pairIKNSt7__cxx1112basic_stringIcSt11char_traitsIcESaIcEEESt10shared_ptrI12addressSpaceEELb1EEEEE10deallocateERSF_PSE_j @922
    _ZNSt16allocator_traitsISaINSt8__detail10_Hash_nodeISt4pairIKNSt7__cxx1112basic_stringIcSt11char_traitsIcESaIcEEESt10shared_ptrI12addressSpaceEELb1EEEEE7destroyISD_EEvRSF_PT_ @923
    _ZNSt16allocator_traitsISaINSt8__detail10_Hash_nodeISt4pairIKNSt7__cxx1112basic_stringIcSt11char_traitsIcESaIcEEESt10shared_ptrI12addressSpaceEELb1EEEEE8allocateERSF_j @924
    _ZNSt16allocator_traitsISaINSt8__detail10_Hash_nodeISt4pairIKNSt7__cxx1112basic_stringIcSt11char_traitsIcESaIcEEESt10shared_ptrI12addressSpaceEELb1EEEEE9constructISD_JRS2_IS8_SC_EEEEvRSF_PT_DpOT0_ @925
    _ZNSt16allocator_traitsISaIP18memoryPageAccessorEE10deallocateERS2_PS1_j @926
    _ZNSt16allocator_traitsISaIPNSt7__cxx1112basic_stringIcSt11char_traitsIcESaIcEEEEE10deallocateERS7_PS6_j @927
    _ZNSt16allocator_traitsISaIPNSt7__cxx1112basic_stringIcSt11char_traitsIcESaIcEEEEE37select_on_container_copy_constructionERKS7_ @928
    _ZNSt16allocator_traitsISaIPNSt7__cxx1112basic_stringIcSt11char_traitsIcESaIcEEEEE7destroyIS6_EEvRS7_PT_ @929
    _ZNSt16allocator_traitsISaIPNSt7__cxx1112basic_stringIcSt11char_traitsIcESaIcEEEEE8allocateERS7_j @930
    _ZNSt16allocator_traitsISaIPNSt7__cxx1112basic_stringIcSt11char_traitsIcESaIcEEEEE8max_sizeERKS7_ @931
    _ZNSt16allocator_traitsISaIPNSt7__cxx1112basic_stringIcSt11char_traitsIcESaIcEEEEE9constructIS6_JS6_EEEvRS7_PT_DpOT0_ @932
    _ZNSt16allocator_traitsISaIPNSt8__detail15_Hash_node_baseEEE10deallocateERS3_PS2_j @933
    _ZNSt16allocator_traitsISaIPNSt8__detail15_Hash_node_baseEEE8allocateERS3_j @934
    _ZNSt16allocator_traitsISaISt10shared_ptrI12addressSpaceEEE10deallocateERS3_PS2_j @935
    _ZNSt16allocator_traitsISaISt10shared_ptrI12addressSpaceEEE7destroyIS2_EEvRS3_PT_ @936
    _ZNSt16allocator_traitsISaISt10shared_ptrI12addressSpaceEEE8allocateERS3_j @937
    _ZNSt16allocator_traitsISaISt10shared_ptrI12addressSpaceEEE8max_sizeERKS3_ @938
    _ZNSt16allocator_traitsISaISt10shared_ptrI12addressSpaceEEE9constructIS2_JRKS2_EEEvRS3_PT_DpOT0_ @939
    _ZNSt16allocator_traitsISaISt10unique_ptrI14pageVisualizerSt14default_deleteIS1_EEEE10deallocateERS5_PS4_j @940
    _ZNSt16allocator_traitsISaISt10unique_ptrI14pageVisualizerSt14default_deleteIS1_EEEE7destroyIS4_EEvRS5_PT_ @941
    _ZNSt16allocator_traitsISaISt10unique_ptrI14pageVisualizerSt14default_deleteIS1_EEEE8allocateERS5_j @942
    _ZNSt16allocator_traitsISaISt10unique_ptrI14pageVisualizerSt14default_deleteIS1_EEEE8max_sizeERKS5_ @943
    _ZNSt16allocator_traitsISaISt10unique_ptrI14pageVisualizerSt14default_deleteIS1_EEEE9constructIS4_JS4_EEEvRS5_PT_DpOT0_ @944
    _ZNSt16allocator_traitsISaISt23_Sp_counted_ptr_inplaceI10loggedPageSaIS1_ELN9__gnu_cxx12_Lock_policyE2EEEE10deallocateERS6_PS5_j @945
    _ZNSt16allocator_traitsISaISt23_Sp_counted_ptr_inplaceI10loggedPageSaIS1_ELN9__gnu_cxx12_Lock_policyE2EEEE8allocateERS6_j @946
    _ZNSt16allocator_traitsISaISt23_Sp_counted_ptr_inplaceI11virtualPageSaIS1_ELN9__gnu_cxx12_Lock_policyE2EEEE10deallocateERS6_PS5_j @947
    _ZNSt16allocator_traitsISaISt23_Sp_counted_ptr_inplaceI11virtualPageSaIS1_ELN9__gnu_cxx12_Lock_policyE2EEEE8allocateERS6_j @948
    _ZNSt16allocator_traitsISaISt23_Sp_counted_ptr_inplaceI14applicationMemSaIS1_ELN9__gnu_cxx12_Lock_policyE2EEEE10deallocateERS6_PS5_j @949
    _ZNSt16allocator_traitsISaISt23_Sp_counted_ptr_inplaceI14applicationMemSaIS1_ELN9__gnu_cxx12_Lock_policyE2EEEE8allocateERS6_j @950
    _ZNSt16allocator_traitsISaISt23_Sp_counted_ptr_inplaceI15memorySpacePageSaIS1_ELN9__gnu_cxx12_Lock_policyE2EEEE10deallocateERS6_PS5_j @951
    _ZNSt16allocator_traitsISaISt23_Sp_counted_ptr_inplaceI15memorySpacePageSaIS1_ELN9__gnu_cxx12_Lock_policyE2EEEE8allocateERS6_j @952
    _ZNSt16allocator_traitsISaISt23_Sp_counted_ptr_inplaceI7luaPageSaIS1_ELN9__gnu_cxx12_Lock_policyE2EEEE10deallocateERS6_PS5_j @953
    _ZNSt16allocator_traitsISaISt23_Sp_counted_ptr_inplaceI7luaPageSaIS1_ELN9__gnu_cxx12_Lock_policyE2EEEE8allocateERS6_j @954
    _ZNSt16allocator_traitsISaISt23_Sp_counted_ptr_inplaceI8MPA_pageSaIS1_ELN9__gnu_cxx12_Lock_policyE2EEEE10deallocateERS6_PS5_j @955
    _ZNSt16allocator_traitsISaISt23_Sp_counted_ptr_inplaceI8MPA_pageSaIS1_ELN9__gnu_cxx12_Lock_policyE2EEEE8allocateERS6_j @956
    _ZNSt16allocator_traitsISaISt23_Sp_counted_ptr_inplaceI8filePageSaIS1_ELN9__gnu_cxx12_Lock_policyE2EEEE10deallocateERS6_PS5_j @957
    _ZNSt16allocator_traitsISaISt23_Sp_counted_ptr_inplaceI8filePageSaIS1_ELN9__gnu_cxx12_Lock_policyE2EEEE8allocateERS6_j @958
    _ZNSt16allocator_traitsISaISt23_Sp_counted_ptr_inplaceI9multiPageSaIS1_ELN9__gnu_cxx12_Lock_policyE2EEEE10deallocateERS6_PS5_j @959
    _ZNSt16allocator_traitsISaISt23_Sp_counted_ptr_inplaceI9multiPageSaIS1_ELN9__gnu_cxx12_Lock_policyE2EEEE8allocateERS6_j @960
    _ZNSt16allocator_traitsISaImEE10deallocateERS0_Pmj @961
    _ZNSt16allocator_traitsISaImEE7destroyImEEvRS0_PT_ @962
    _ZNSt16allocator_traitsISaImEE8allocateERS0_j @963
    _ZNSt16allocator_traitsISaImEE8max_sizeERKS0_ @964
    _ZNSt16allocator_traitsISaImEE9constructImJmEEEvRS0_PT_DpOT0_ @965
    _ZNSt20__copy_move_backwardILb1ELb1ESt26random_access_iterator_tagE13__copy_move_bIPNSt7__cxx1112basic_stringIcSt11char_traitsIcESaIcEEEEEPT_PKSA_SD_SB_ @966
    _ZNSt20__uninitialized_copyILb0EE13__uninit_copyISt13move_iteratorIPSt10shared_ptrI12addressSpaceEES6_EET0_T_S9_S8_ @967
    _ZNSt20__uninitialized_copyILb0EE13__uninit_copyISt13move_iteratorIPSt10unique_ptrI14pageVisualizerSt14default_deleteIS4_EEES8_EET0_T_SB_SA_ @968
    _ZNSt20__uninitialized_copyILb1EE13__uninit_copyIN9__gnu_cxx17__normal_iteratorIPKPNSt7__cxx1112basic_stringIcSt11char_traitsIcESaIcEEESt6vectorISA_SaISA_EEEEPSA_EET0_T_SJ_SI_ @969
    _ZNSt20__uninitialized_copyILb1EE13__uninit_copyISt13move_iteratorIP8quadcordES4_EET0_T_S7_S6_ @970
    _ZNSt20__uninitialized_copyILb1EE13__uninit_copyISt13move_iteratorIPPNSt7__cxx1112basic_stringIcSt11char_traitsIcESaIcEEEESA_EET0_T_SD_SC_ @971
    _ZNSt20__uninitialized_copyILb1EE13__uninit_copyISt13move_iteratorIPmES3_EET0_T_S6_S5_ @972
    _ZNSt23_Sp_counted_ptr_inplaceI10loggedPageSaIS0_ELN9__gnu_cxx12_Lock_policyE2EE10_M_destroyEv @973
    _ZNSt23_Sp_counted_ptr_inplaceI10loggedPageSaIS0_ELN9__gnu_cxx12_Lock_policyE2EE10_M_disposeEv @974
    _ZNSt23_Sp_counted_ptr_inplaceI10loggedPageSaIS0_ELN9__gnu_cxx12_Lock_policyE2EE14_M_get_deleterERKSt9type_info @975
    _ZNSt23_Sp_counted_ptr_inplaceI10loggedPageSaIS0_ELN9__gnu_cxx12_Lock_policyE2EE5_Impl8_M_allocEv @976
    _ZNSt23_Sp_counted_ptr_inplaceI10loggedPageSaIS0_ELN9__gnu_cxx12_Lock_policyE2EE5_ImplC1ES1_ @977
    _ZNSt23_Sp_counted_ptr_inplaceI10loggedPageSaIS0_ELN9__gnu_cxx12_Lock_policyE2EE5_ImplD1Ev @978
    _ZNSt23_Sp_counted_ptr_inplaceI10loggedPageSaIS0_ELN9__gnu_cxx12_Lock_policyE2EE6_M_ptrEv @979
    _ZNSt23_Sp_counted_ptr_inplaceI10loggedPageSaIS0_ELN9__gnu_cxx12_Lock_policyE2EEC1IJRNSt7__cxx1112basic_stringIcSt11char_traitsIcESaIcEEERSt10shared_ptrI12addressSpaceEEEES1_DpOT_ @980
    _ZNSt23_Sp_counted_ptr_inplaceI10loggedPageSaIS0_ELN9__gnu_cxx12_Lock_policyE2EED0Ev @981
    _ZNSt23_Sp_counted_ptr_inplaceI10loggedPageSaIS0_ELN9__gnu_cxx12_Lock_policyE2EED1Ev @982
    _ZNSt23_Sp_counted_ptr_inplaceI11virtualPageSaIS0_ELN9__gnu_cxx12_Lock_policyE2EE10_M_destroyEv @983
    _ZNSt23_Sp_counted_ptr_inplaceI11virtualPageSaIS0_ELN9__gnu_cxx12_Lock_policyE2EE10_M_disposeEv @984
    _ZNSt23_Sp_counted_ptr_inplaceI11virtualPageSaIS0_ELN9__gnu_cxx12_Lock_policyE2EE14_M_get_deleterERKSt9type_info @985
    _ZNSt23_Sp_counted_ptr_inplaceI11virtualPageSaIS0_ELN9__gnu_cxx12_Lock_policyE2EE5_Impl8_M_allocEv @986
    _ZNSt23_Sp_counted_ptr_inplaceI11virtualPageSaIS0_ELN9__gnu_cxx12_Lock_policyE2EE5_ImplC1ES1_ @987
    _ZNSt23_Sp_counted_ptr_inplaceI11virtualPageSaIS0_ELN9__gnu_cxx12_Lock_policyE2EE5_ImplD1Ev @988
    _ZNSt23_Sp_counted_ptr_inplaceI11virtualPageSaIS0_ELN9__gnu_cxx12_Lock_policyE2EE6_M_ptrEv @989
    _ZNSt23_Sp_counted_ptr_inplaceI11virtualPageSaIS0_ELN9__gnu_cxx12_Lock_policyE2EEC1IJjEEES1_DpOT_ @990
    _ZNSt23_Sp_counted_ptr_inplaceI11virtualPageSaIS0_ELN9__gnu_cxx12_Lock_policyE2EED0Ev @991
    _ZNSt23_Sp_counted_ptr_inplaceI11virtualPageSaIS0_ELN9__gnu_cxx12_Lock_policyE2EED1Ev @992
    _ZNSt23_Sp_counted_ptr_inplaceI14applicationMemSaIS0_ELN9__gnu_cxx12_Lock_policyE2EE10_M_destroyEv @993
    _ZNSt23_Sp_counted_ptr_inplaceI14applicationMemSaIS0_ELN9__gnu_cxx12_Lock_policyE2EE10_M_disposeEv @994
    _ZNSt23_Sp_counted_ptr_inplaceI14applicationMemSaIS0_ELN9__gnu_cxx12_Lock_policyE2EE14_M_get_deleterERKSt9type_info @995
    _ZNSt23_Sp_counted_ptr_inplaceI14applicationMemSaIS0_ELN9__gnu_cxx12_Lock_policyE2EE5_Impl8_M_allocEv @996
    _ZNSt23_Sp_counted_ptr_inplaceI14applicationMemSaIS0_ELN9__gnu_cxx12_Lock_policyE2EE5_ImplC1ES1_ @997
    _ZNSt23_Sp_counted_ptr_inplaceI14applicationMemSaIS0_ELN9__gnu_cxx12_Lock_policyE2EE5_ImplD1Ev @998
    _ZNSt23_Sp_counted_ptr_inplaceI14applicationMemSaIS0_ELN9__gnu_cxx12_Lock_policyE2EE6_M_ptrEv @999
    _ZNSt23_Sp_counted_ptr_inplaceI14applicationMemSaIS0_ELN9__gnu_cxx12_Lock_policyE2EEC1IJRmRjRPcEEES1_DpOT_ @1000
    _ZNSt23_Sp_counted_ptr_inplaceI14applicationMemSaIS0_ELN9__gnu_cxx12_Lock_policyE2EED0Ev @1001
    _ZNSt23_Sp_counted_ptr_inplaceI14applicationMemSaIS0_ELN9__gnu_cxx12_Lock_policyE2EED1Ev @1002
    _ZNSt23_Sp_counted_ptr_inplaceI15memorySpacePageSaIS0_ELN9__gnu_cxx12_Lock_policyE2EE10_M_destroyEv @1003
    _ZNSt23_Sp_counted_ptr_inplaceI15memorySpacePageSaIS0_ELN9__gnu_cxx12_Lock_policyE2EE10_M_disposeEv @1004
    _ZNSt23_Sp_counted_ptr_inplaceI15memorySpacePageSaIS0_ELN9__gnu_cxx12_Lock_policyE2EE14_M_get_deleterERKSt9type_info @1005
    _ZNSt23_Sp_counted_ptr_inplaceI15memorySpacePageSaIS0_ELN9__gnu_cxx12_Lock_policyE2EE5_Impl8_M_allocEv @1006
    _ZNSt23_Sp_counted_ptr_inplaceI15memorySpacePageSaIS0_ELN9__gnu_cxx12_Lock_policyE2EE5_ImplC1ES1_ @1007
    _ZNSt23_Sp_counted_ptr_inplaceI15memorySpacePageSaIS0_ELN9__gnu_cxx12_Lock_policyE2EE5_ImplD1Ev @1008
    _ZNSt23_Sp_counted_ptr_inplaceI15memorySpacePageSaIS0_ELN9__gnu_cxx12_Lock_policyE2EE6_M_ptrEv @1009
    _ZNSt23_Sp_counted_ptr_inplaceI15memorySpacePageSaIS0_ELN9__gnu_cxx12_Lock_policyE2EEC1IJRP18virtualMemorySpaceRPcjEEES1_DpOT_ @1010
    _ZNSt23_Sp_counted_ptr_inplaceI15memorySpacePageSaIS0_ELN9__gnu_cxx12_Lock_policyE2EED0Ev @1011
    _ZNSt23_Sp_counted_ptr_inplaceI15memorySpacePageSaIS0_ELN9__gnu_cxx12_Lock_policyE2EED1Ev @1012
    _ZNSt23_Sp_counted_ptr_inplaceI7luaPageSaIS0_ELN9__gnu_cxx12_Lock_policyE2EE10_M_destroyEv @1013
    _ZNSt23_Sp_counted_ptr_inplaceI7luaPageSaIS0_ELN9__gnu_cxx12_Lock_policyE2EE10_M_disposeEv @1014
    _ZNSt23_Sp_counted_ptr_inplaceI7luaPageSaIS0_ELN9__gnu_cxx12_Lock_policyE2EE14_M_get_deleterERKSt9type_info @1015
    _ZNSt23_Sp_counted_ptr_inplaceI7luaPageSaIS0_ELN9__gnu_cxx12_Lock_policyE2EE5_Impl8_M_allocEv @1016
    _ZNSt23_Sp_counted_ptr_inplaceI7luaPageSaIS0_ELN9__gnu_cxx12_Lock_policyE2EE5_ImplC1ES1_ @1017
    _ZNSt23_Sp_counted_ptr_inplaceI7luaPageSaIS0_ELN9__gnu_cxx12_Lock_policyE2EE5_ImplD1Ev @1018
    _ZNSt23_Sp_counted_ptr_inplaceI7luaPageSaIS0_ELN9__gnu_cxx12_Lock_policyE2EE6_M_ptrEv @1019
    _ZNSt23_Sp_counted_ptr_inplaceI7luaPageSaIS0_ELN9__gnu_cxx12_Lock_policyE2EEC1IJRP9lua_StateRNSt7__cxx1112basic_stringIcSt11char_traitsIcESaIcEEEEEES1_DpOT_ @1020
    _ZNSt23_Sp_counted_ptr_inplaceI7luaPageSaIS0_ELN9__gnu_cxx12_Lock_policyE2EED0Ev @1021
    _ZNSt23_Sp_counted_ptr_inplaceI7luaPageSaIS0_ELN9__gnu_cxx12_Lock_policyE2EED1Ev @1022
    _ZNSt23_Sp_counted_ptr_inplaceI8MPA_pageSaIS0_ELN9__gnu_cxx12_Lock_policyE2EE10_M_destroyEv @1023
    _ZNSt23_Sp_counted_ptr_inplaceI8MPA_pageSaIS0_ELN9__gnu_cxx12_Lock_policyE2EE10_M_disposeEv @1024
    _ZNSt23_Sp_counted_ptr_inplaceI8MPA_pageSaIS0_ELN9__gnu_cxx12_Lock_policyE2EE14_M_get_deleterERKSt9type_info @1025
    _ZNSt23_Sp_counted_ptr_inplaceI8MPA_pageSaIS0_ELN9__gnu_cxx12_Lock_policyE2EE5_Impl8_M_allocEv @1026
    _ZNSt23_Sp_counted_ptr_inplaceI8MPA_pageSaIS0_ELN9__gnu_cxx12_Lock_policyE2EE5_ImplC1ES1_ @1027
    _ZNSt23_Sp_counted_ptr_inplaceI8MPA_pageSaIS0_ELN9__gnu_cxx12_Lock_policyE2EE5_ImplD1Ev @1028
    _ZNSt23_Sp_counted_ptr_inplaceI8MPA_pageSaIS0_ELN9__gnu_cxx12_Lock_policyE2EE6_M_ptrEv @1029
    _ZNSt23_Sp_counted_ptr_inplaceI8MPA_pageSaIS0_ELN9__gnu_cxx12_Lock_policyE2EEC1IJEEES1_DpOT_ @1030
    _ZNSt23_Sp_counted_ptr_inplaceI8MPA_pageSaIS0_ELN9__gnu_cxx12_Lock_policyE2EED0Ev @1031
    _ZNSt23_Sp_counted_ptr_inplaceI8MPA_pageSaIS0_ELN9__gnu_cxx12_Lock_policyE2EED1Ev @1032
    _ZNSt23_Sp_counted_ptr_inplaceI8filePageSaIS0_ELN9__gnu_cxx12_Lock_policyE2EE10_M_destroyEv @1033
    _ZNSt23_Sp_counted_ptr_inplaceI8filePageSaIS0_ELN9__gnu_cxx12_Lock_policyE2EE10_M_disposeEv @1034
    _ZNSt23_Sp_counted_ptr_inplaceI8filePageSaIS0_ELN9__gnu_cxx12_Lock_policyE2EE14_M_get_deleterERKSt9type_info @1035
    _ZNSt23_Sp_counted_ptr_inplaceI8filePageSaIS0_ELN9__gnu_cxx12_Lock_policyE2EE5_Impl8_M_allocEv @1036
    _ZNSt23_Sp_counted_ptr_inplaceI8filePageSaIS0_ELN9__gnu_cxx12_Lock_policyE2EE5_ImplC1ES1_ @1037
    _ZNSt23_Sp_counted_ptr_inplaceI8filePageSaIS0_ELN9__gnu_cxx12_Lock_policyE2EE5_ImplD1Ev @1038
    _ZNSt23_Sp_counted_ptr_inplaceI8filePageSaIS0_ELN9__gnu_cxx12_Lock_policyE2EE6_M_ptrEv @1039
    _ZNSt23_Sp_counted_ptr_inplaceI8filePageSaIS0_ELN9__gnu_cxx12_Lock_policyE2EEC1IJRNSt7__cxx1112basic_stringIcSt11char_traitsIcESaIcEEERjEEES1_DpOT_ @1040
    _ZNSt23_Sp_counted_ptr_inplaceI8filePageSaIS0_ELN9__gnu_cxx12_Lock_policyE2EED0Ev @1041
    _ZNSt23_Sp_counted_ptr_inplaceI8filePageSaIS0_ELN9__gnu_cxx12_Lock_policyE2EED1Ev @1042
    _ZNSt23_Sp_counted_ptr_inplaceI9multiPageSaIS0_ELN9__gnu_cxx12_Lock_policyE2EE10_M_destroyEv @1043
    _ZNSt23_Sp_counted_ptr_inplaceI9multiPageSaIS0_ELN9__gnu_cxx12_Lock_policyE2EE10_M_disposeEv @1044
    _ZNSt23_Sp_counted_ptr_inplaceI9multiPageSaIS0_ELN9__gnu_cxx12_Lock_policyE2EE14_M_get_deleterERKSt9type_info @1045
    _ZNSt23_Sp_counted_ptr_inplaceI9multiPageSaIS0_ELN9__gnu_cxx12_Lock_policyE2EE5_Impl8_M_allocEv @1046
    _ZNSt23_Sp_counted_ptr_inplaceI9multiPageSaIS0_ELN9__gnu_cxx12_Lock_policyE2EE5_ImplC1ES1_ @1047
    _ZNSt23_Sp_counted_ptr_inplaceI9multiPageSaIS0_ELN9__gnu_cxx12_Lock_policyE2EE5_ImplD1Ev @1048
    _ZNSt23_Sp_counted_ptr_inplaceI9multiPageSaIS0_ELN9__gnu_cxx12_Lock_policyE2EE6_M_ptrEv @1049
    _ZNSt23_Sp_counted_ptr_inplaceI9multiPageSaIS0_ELN9__gnu_cxx12_Lock_policyE2EEC1IJEEES1_DpOT_ @1050
    _ZNSt23_Sp_counted_ptr_inplaceI9multiPageSaIS0_ELN9__gnu_cxx12_Lock_policyE2EED0Ev @1051
    _ZNSt23_Sp_counted_ptr_inplaceI9multiPageSaIS0_ELN9__gnu_cxx12_Lock_policyE2EED1Ev @1052
    _ZNSt4pairIKNSt7__cxx1112basic_stringIcSt11char_traitsIcESaIcEEEP18virtualMemorySpaceEC1IS5_S8_Lb1EEERKS_IT_T0_E @1053
    _ZNSt4pairIKNSt7__cxx1112basic_stringIcSt11char_traitsIcESaIcEEEP18virtualMemorySpaceED1Ev @1054
    _ZNSt4pairIKNSt7__cxx1112basic_stringIcSt11char_traitsIcESaIcEEESt10shared_ptrI12addressSpaceEEC1IS5_S9_Lb1EEERKS_IT_T0_E @1055
    _ZNSt4pairIKNSt7__cxx1112basic_stringIcSt11char_traitsIcESaIcEEESt10shared_ptrI12addressSpaceEED1Ev @1056
    _ZNSt4pairINSt7__cxx1112basic_stringIcSt11char_traitsIcESaIcEEEP18virtualMemorySpaceEC1IRPKcRS7_Lb1EEEOT_OT0_ @1057
    _ZNSt4pairINSt7__cxx1112basic_stringIcSt11char_traitsIcESaIcEEEP18virtualMemorySpaceEC1IRS5_RS7_Lb1EEEOT_OT0_ @1058
    _ZNSt4pairINSt7__cxx1112basic_stringIcSt11char_traitsIcESaIcEEEP18virtualMemorySpaceED1Ev @1059
    _ZNSt4pairINSt7__cxx1112basic_stringIcSt11char_traitsIcESaIcEEESt10shared_ptrI12addressSpaceEEC1IRS5_RS6_I10loggedPageELb1EEEOT_OT0_ @1060
    _ZNSt4pairINSt7__cxx1112basic_stringIcSt11char_traitsIcESaIcEEESt10shared_ptrI12addressSpaceEEC1IRS5_RS6_I7luaPageELb1EEEOT_OT0_ @1061
    _ZNSt4pairINSt7__cxx1112basic_stringIcSt11char_traitsIcESaIcEEESt10shared_ptrI12addressSpaceEEC1IRS5_RS6_I8MPA_pageELb1EEEOT_OT0_ @1062
    _ZNSt4pairINSt7__cxx1112basic_stringIcSt11char_traitsIcESaIcEEESt10shared_ptrI12addressSpaceEEC1IRS5_RS6_I8filePageELb1EEEOT_OT0_ @1063
    _ZNSt4pairINSt7__cxx1112basic_stringIcSt11char_traitsIcESaIcEEESt10shared_ptrI12addressSpaceEEC1IRS5_RS6_I9multiPageELb1EEEOT_OT0_ @1064
    _ZNSt4pairINSt7__cxx1112basic_stringIcSt11char_traitsIcESaIcEEESt10shared_ptrI12addressSpaceEEC1IRS5_RS8_Lb1EEEOT_OT0_ @1065
    _ZNSt4pairINSt7__cxx1112basic_stringIcSt11char_traitsIcESaIcEEESt10shared_ptrI12addressSpaceEED1Ev @1066
    _ZNSt4pairINSt8__detail14_Node_iteratorIS_IKNSt7__cxx1112basic_stringIcSt11char_traitsIcESaIcEEEP18virtualMemorySpaceELb0ELb1EEEbEC1ISC_bLb1EEEOT_OT0_ @1067
    _ZNSt4pairINSt8__detail14_Node_iteratorIS_IKNSt7__cxx1112basic_stringIcSt11char_traitsIcESaIcEEEP18virtualMemorySpaceELb0ELb1EEEbEC1ISC_bLb1EEEv @1068
    _ZNSt4pairINSt8__detail14_Node_iteratorIS_IKNSt7__cxx1112basic_stringIcSt11char_traitsIcESaIcEEEP18virtualMemorySpaceELb0ELb1EEEbEaSEOSD_ @1069
    _ZNSt4pairINSt8__detail14_Node_iteratorIS_IKNSt7__cxx1112basic_stringIcSt11char_traitsIcESaIcEEESt10shared_ptrI12addressSpaceEELb0ELb1EEEbEC1ISD_bLb1EEEOT_OT0_ @1070
    _ZNSt4pairINSt8__detail14_Node_iteratorIS_IKNSt7__cxx1112basic_stringIcSt11char_traitsIcESaIcEEESt10shared_ptrI12addressSpaceEELb0ELb1EEEbEC1ISD_bLb1EEEv @1071
    _ZNSt4pairINSt8__detail14_Node_iteratorIS_IKNSt7__cxx1112basic_stringIcSt11char_traitsIcESaIcEEESt10shared_ptrI12addressSpaceEELb0ELb1EEEbEaSEOSE_ @1072
    _ZNSt5tupleIJP14pageVisualizerSt14default_deleteIS0_EEEC1IRS1_S3_Lb1EEEOT_OT0_ @1073
    _ZNSt5tupleIJP14pageVisualizerSt14default_deleteIS0_EEEC1IS1_S3_Lb1EEEv @1074
    _ZNSt6vectorI8quadcordSaIS0_EE15_M_erase_at_endEPS0_ @1075
    _ZNSt6vectorI8quadcordSaIS0_EE17_M_realloc_insertIJRKS0_EEEvN9__gnu_cxx17__normal_iteratorIPS0_S2_EEDpOT_ @1076
    _ZNSt6vectorI8quadcordSaIS0_EE3endEv @1077
    _ZNSt6vectorI8quadcordSaIS0_EE5beginEv @1078
    _ZNSt6vectorI8quadcordSaIS0_EE5clearEv @1079
    _ZNSt6vectorI8quadcordSaIS0_EE9push_backERKS0_ @1080
    _ZNSt6vectorI8quadcordSaIS0_EEC1Ev @1081
    _ZNSt6vectorI8quadcordSaIS0_EED1Ev @1082
    _ZNSt6vectorIP18memoryPageAccessorSaIS1_EEC1Ev @1083
    _ZNSt6vectorIP18memoryPageAccessorSaIS1_EED1Ev @1084
    _ZNSt6vectorIPNSt7__cxx1112basic_stringIcSt11char_traitsIcESaIcEEESaIS6_EE13_M_insert_auxIS6_EEvN9__gnu_cxx17__normal_iteratorIPS6_S8_EEOT_ @1085
    _ZNSt6vectorIPNSt7__cxx1112basic_stringIcSt11char_traitsIcESaIcEEESaIS6_EE14_M_emplace_auxEN9__gnu_cxx17__normal_iteratorIPKS6_S8_EEOS6_ @1086
    _ZNSt6vectorIPNSt7__cxx1112basic_stringIcSt11char_traitsIcESaIcEEESaIS6_EE14_M_insert_rvalEN9__gnu_cxx17__normal_iteratorIPKS6_S8_EEOS6_ @1087
    _ZNSt6vectorIPNSt7__cxx1112basic_stringIcSt11char_traitsIcESaIcEEESaIS6_EE17_M_realloc_insertIJS6_EEEvN9__gnu_cxx17__normal_iteratorIPS6_S8_EEDpOT_ @1088
    _ZNSt6vectorIPNSt7__cxx1112basic_stringIcSt11char_traitsIcESaIcEEESaIS6_EE5beginEv @1089
    _ZNSt6vectorIPNSt7__cxx1112basic_stringIcSt11char_traitsIcESaIcEEESaIS6_EE7emplaceIJS6_EEEN9__gnu_cxx17__normal_iteratorIPS6_S8_EENSB_IPKS6_S8_EEDpOT_ @1090
    _ZNSt6vectorIPNSt7__cxx1112basic_stringIcSt11char_traitsIcESaIcEEESaIS6_EEC1ERKS8_ @1091
    _ZNSt6vectorIPNSt7__cxx1112basic_stringIcSt11char_traitsIcESaIcEEESaIS6_EEC1Ev @1092
    _ZNSt6vectorIPNSt7__cxx1112basic_stringIcSt11char_traitsIcESaIcEEESaIS6_EED1Ev @1093
    _ZNSt6vectorIPNSt7__cxx1112basic_stringIcSt11char_traitsIcESaIcEEESaIS6_EEixEj @1094
    _ZNSt6vectorISt10shared_ptrI12addressSpaceESaIS2_EE17_M_realloc_insertIJRKS2_EEEvN9__gnu_cxx17__normal_iteratorIPS2_S4_EEDpOT_ @1095
    _ZNSt6vectorISt10shared_ptrI12addressSpaceESaIS2_EE2atEj @1096
    _ZNSt6vectorISt10shared_ptrI12addressSpaceESaIS2_EE3endEv @1097
    _ZNSt6vectorISt10shared_ptrI12addressSpaceESaIS2_EE5beginEv @1098
    _ZNSt6vectorISt10shared_ptrI12addressSpaceESaIS2_EE5eraseEN9__gnu_cxx17__normal_iteratorIPKS2_S4_EE @1099
    _ZNSt6vectorISt10shared_ptrI12addressSpaceESaIS2_EE8_M_eraseEN9__gnu_cxx17__normal_iteratorIPS2_S4_EE @1100
    _ZNSt6vectorISt10shared_ptrI12addressSpaceESaIS2_EE8pop_backEv @1101
    _ZNSt6vectorISt10shared_ptrI12addressSpaceESaIS2_EE9push_backERKS2_ @1102
    _ZNSt6vectorISt10shared_ptrI12addressSpaceESaIS2_EEC1Ev @1103
    _ZNSt6vectorISt10shared_ptrI12addressSpaceESaIS2_EED1Ev @1104
    _ZNSt6vectorISt10shared_ptrI12addressSpaceESaIS2_EEixEj @1105
    _ZNSt6vectorISt10unique_ptrI14pageVisualizerSt14default_deleteIS1_EESaIS4_EE12emplace_backIJS4_EEEvDpOT_ @1106
    _ZNSt6vectorISt10unique_ptrI14pageVisualizerSt14default_deleteIS1_EESaIS4_EE17_M_realloc_insertIJS4_EEEvN9__gnu_cxx17__normal_iteratorIPS4_S6_EEDpOT_ @1107
    _ZNSt6vectorISt10unique_ptrI14pageVisualizerSt14default_deleteIS1_EESaIS4_EE2atEj @1108
    _ZNSt6vectorISt10unique_ptrI14pageVisualizerSt14default_deleteIS1_EESaIS4_EE3endEv @1109
    _ZNSt6vectorISt10unique_ptrI14pageVisualizerSt14default_deleteIS1_EESaIS4_EE5beginEv @1110
    _ZNSt6vectorISt10unique_ptrI14pageVisualizerSt14default_deleteIS1_EESaIS4_EE5eraseEN9__gnu_cxx17__normal_iteratorIPKS4_S6_EE @1111
    _ZNSt6vectorISt10unique_ptrI14pageVisualizerSt14default_deleteIS1_EESaIS4_EE8_M_eraseEN9__gnu_cxx17__normal_iteratorIPS4_S6_EE @1112
    _ZNSt6vectorISt10unique_ptrI14pageVisualizerSt14default_deleteIS1_EESaIS4_EE9push_backEOS4_ @1113
    _ZNSt6vectorISt10unique_ptrI14pageVisualizerSt14default_deleteIS1_EESaIS4_EEC1Ev @1114
    _ZNSt6vectorISt10unique_ptrI14pageVisualizerSt14default_deleteIS1_EESaIS4_EED1Ev @1115
    _ZNSt6vectorISt10unique_ptrI14pageVisualizerSt14default_deleteIS1_EESaIS4_EEixEj @1116
    _ZNSt6vectorImSaImEE12emplace_backIJmEEEvDpOT_ @1117
    _ZNSt6vectorImSaImEE15_M_erase_at_endEPm @1118
    _ZNSt6vectorImSaImEE17_M_realloc_insertIJmEEEvN9__gnu_cxx17__normal_iteratorIPmS1_EEDpOT_ @1119
    _ZNSt6vectorImSaImEE3endEv @1120
    _ZNSt6vectorImSaImEE5beginEv @1121
    _ZNSt6vectorImSaImEE5clearEv @1122
    _ZNSt6vectorImSaImEE9push_backEOm @1123
    _ZNSt6vectorImSaImEEC1Ev @1124
    _ZNSt6vectorImSaImEED1Ev @1125
    _ZNSt6vectorImSaImEEixEj @1126
    _ZNSt8__detail10_Hash_nodeISt4pairIKNSt7__cxx1112basic_stringIcSt11char_traitsIcESaIcEEEP18virtualMemorySpaceELb1EEC1Ev @1127
    _ZNSt8__detail10_Hash_nodeISt4pairIKNSt7__cxx1112basic_stringIcSt11char_traitsIcESaIcEEESt10shared_ptrI12addressSpaceEELb1EEC1Ev @1128
    _ZNSt8__detail12_Insert_baseINSt7__cxx1112basic_stringIcSt11char_traitsIcESaIcEEESt4pairIKS6_P18virtualMemorySpaceESaISB_ENS_10_Select1stESt8equal_toIS6_ESt4hashIS6_ENS_18_Mod_range_hashingENS_20_Default_ranged_hashENS_20_Prime_rehash_policyENS_17_Hashtable_traitsILb1ELb0ELb1EEEE20_M_conjure_hashtableEv @1129
    _ZNSt8__detail12_Insert_baseINSt7__cxx1112basic_stringIcSt11char_traitsIcESaIcEEESt4pairIKS6_St10shared_ptrI12addressSpaceEESaISC_ENS_10_Select1stESt8equal_toIS6_ESt4hashIS6_ENS_18_Mod_range_hashingENS_20_Default_ranged_hashENS_20_Prime_rehash_policyENS_17_Hashtable_traitsILb1ELb0ELb1EEEE20_M_conjure_hashtableEv @1130
    _ZNSt8__detail13_Equal_helperINSt7__cxx1112basic_stringIcSt11char_traitsIcESaIcEEESt4pairIKS6_P18virtualMemorySpaceENS_10_Select1stESt8equal_toIS6_EjLb1EE9_S_equalsERKSE_RKSC_RS8_jPNS_10_Hash_nodeISB_Lb1EEE @1131
    _ZNSt8__detail13_Equal_helperINSt7__cxx1112basic_stringIcSt11char_traitsIcESaIcEEESt4pairIKS6_St10shared_ptrI12addressSpaceEENS_10_Select1stESt8equal_toIS6_EjLb1EE9_S_equalsERKSF_RKSD_RS8_jPNS_10_Hash_nodeISC_Lb1EEE @1132
    _ZNSt8__detail14_Node_iteratorISt4pairIKNSt7__cxx1112basic_stringIcSt11char_traitsIcESaIcEEEP18virtualMemorySpaceELb0ELb1EEC1EPNS_10_Hash_nodeISB_Lb1EEE @1133
    _ZNSt8__detail14_Node_iteratorISt4pairIKNSt7__cxx1112basic_stringIcSt11char_traitsIcESaIcEEEP18virtualMemorySpaceELb0ELb1EEC1Ev @1134
    _ZNSt8__detail14_Node_iteratorISt4pairIKNSt7__cxx1112basic_stringIcSt11char_traitsIcESaIcEEESt10shared_ptrI12addressSpaceEELb0ELb1EEC1EPNS_10_Hash_nodeISC_Lb1EEE @1135
    _ZNSt8__detail14_Node_iteratorISt4pairIKNSt7__cxx1112basic_stringIcSt11char_traitsIcESaIcEEESt10shared_ptrI12addressSpaceEELb0ELb1EEC1Ev @1136
    _ZNSt8__detail15_Hash_code_baseINSt7__cxx1112basic_stringIcSt11char_traitsIcESaIcEEESt4pairIKS6_P18virtualMemorySpaceENS_10_Select1stESt4hashIS6_ENS_18_Mod_range_hashingENS_20_Default_ranged_hashELb1EE10_M_extractEv @1137
    _ZNSt8__detail15_Hash_code_baseINSt7__cxx1112basic_stringIcSt11char_traitsIcESaIcEEESt4pairIKS6_St10shared_ptrI12addressSpaceEENS_10_Select1stESt4hashIS6_ENS_18_Mod_range_hashingENS_20_Default_ranged_hashELb1EE10_M_extractEv @1138
    _ZNSt8__detail15_Hash_node_baseC1Ev @1139
    _ZNSt8__detail15_Hash_node_baseC2Ev @1140
    _ZNSt8__detail16_Hashtable_allocISaINS_10_Hash_nodeISt4pairIKNSt7__cxx1112basic_stringIcSt11char_traitsIcESaIcEEEP18virtualMemorySpaceELb1EEEEE16_M_allocate_nodeIJRS2_IS8_SB_EEEEPSD_DpOT_ @1141
    _ZNSt8__detail16_Hashtable_allocISaINS_10_Hash_nodeISt4pairIKNSt7__cxx1112basic_stringIcSt11char_traitsIcESaIcEEEP18virtualMemorySpaceELb1EEEEE17_M_node_allocatorEv @1142
    _ZNSt8__detail16_Hashtable_allocISaINS_10_Hash_nodeISt4pairIKNSt7__cxx1112basic_stringIcSt11char_traitsIcESaIcEEEP18virtualMemorySpaceELb1EEEEE18_M_deallocate_nodeEPSD_ @1143
    _ZNSt8__detail16_Hashtable_allocISaINS_10_Hash_nodeISt4pairIKNSt7__cxx1112basic_stringIcSt11char_traitsIcESaIcEEEP18virtualMemorySpaceELb1EEEEE19_M_allocate_bucketsEj @1144
    _ZNSt8__detail16_Hashtable_allocISaINS_10_Hash_nodeISt4pairIKNSt7__cxx1112basic_stringIcSt11char_traitsIcESaIcEEEP18virtualMemorySpaceELb1EEEEE19_M_deallocate_nodesEPSD_ @1145
    _ZNSt8__detail16_Hashtable_allocISaINS_10_Hash_nodeISt4pairIKNSt7__cxx1112basic_stringIcSt11char_traitsIcESaIcEEEP18virtualMemorySpaceELb1EEEEE21_M_deallocate_bucketsEPPNS_15_Hash_node_baseEj @1146
    _ZNSt8__detail16_Hashtable_allocISaINS_10_Hash_nodeISt4pairIKNSt7__cxx1112basic_stringIcSt11char_traitsIcESaIcEEEP18virtualMemorySpaceELb1EEEEEC2Ev @1147
    _ZNSt8__detail16_Hashtable_allocISaINS_10_Hash_nodeISt4pairIKNSt7__cxx1112basic_stringIcSt11char_traitsIcESaIcEEEP18virtualMemorySpaceELb1EEEEED2Ev @1148
    _ZNSt8__detail16_Hashtable_allocISaINS_10_Hash_nodeISt4pairIKNSt7__cxx1112basic_stringIcSt11char_traitsIcESaIcEEESt10shared_ptrI12addressSpaceEELb1EEEEE16_M_allocate_nodeIJRS2_IS8_SC_EEEEPSE_DpOT_ @1149
    _ZNSt8__detail16_Hashtable_allocISaINS_10_Hash_nodeISt4pairIKNSt7__cxx1112basic_stringIcSt11char_traitsIcESaIcEEESt10shared_ptrI12addressSpaceEELb1EEEEE17_M_node_allocatorEv @1150
    _ZNSt8__detail16_Hashtable_allocISaINS_10_Hash_nodeISt4pairIKNSt7__cxx1112basic_stringIcSt11char_traitsIcESaIcEEESt10shared_ptrI12addressSpaceEELb1EEEEE18_M_deallocate_nodeEPSE_ @1151
    _ZNSt8__detail16_Hashtable_allocISaINS_10_Hash_nodeISt4pairIKNSt7__cxx1112basic_stringIcSt11char_traitsIcESaIcEEESt10shared_ptrI12addressSpaceEELb1EEEEE19_M_allocate_bucketsEj @1152
    _ZNSt8__detail16_Hashtable_allocISaINS_10_Hash_nodeISt4pairIKNSt7__cxx1112basic_stringIcSt11char_traitsIcESaIcEEESt10shared_ptrI12addressSpaceEELb1EEEEE19_M_deallocate_nodesEPSE_ @1153
    _ZNSt8__detail16_Hashtable_allocISaINS_10_Hash_nodeISt4pairIKNSt7__cxx1112basic_stringIcSt11char_traitsIcESaIcEEESt10shared_ptrI12addressSpaceEELb1EEEEE21_M_deallocate_bucketsEPPNS_15_Hash_node_baseEj @1154
    _ZNSt8__detail16_Hashtable_allocISaINS_10_Hash_nodeISt4pairIKNSt7__cxx1112basic_stringIcSt11char_traitsIcESaIcEEESt10shared_ptrI12addressSpaceEELb1EEEEEC2Ev @1155
    _ZNSt8__detail16_Hashtable_allocISaINS_10_Hash_nodeISt4pairIKNSt7__cxx1112basic_stringIcSt11char_traitsIcESaIcEEESt10shared_ptrI12addressSpaceEELb1EEEEED2Ev @1156
    _ZNSt8__detail19_Node_iterator_baseISt4pairIKNSt7__cxx1112basic_stringIcSt11char_traitsIcESaIcEEEP18virtualMemorySpaceELb1EEC2EPNS_10_Hash_nodeISB_Lb1EEE @1157
    _ZNSt8__detail19_Node_iterator_baseISt4pairIKNSt7__cxx1112basic_stringIcSt11char_traitsIcESaIcEEESt10shared_ptrI12addressSpaceEELb1EEC2EPNS_10_Hash_nodeISC_Lb1EEE @1158
    _ZNSt8__detail20_Prime_rehash_policy8_M_resetEj @1159
    _ZNSt8__detail20_Prime_rehash_policyC1Ef @1160
    _ZNSt8__detail21_Hash_node_value_baseISt4pairIKNSt7__cxx1112basic_stringIcSt11char_traitsIcESaIcEEEP18virtualMemorySpaceEE4_M_vEv @1161
    _ZNSt8__detail21_Hash_node_value_baseISt4pairIKNSt7__cxx1112basic_stringIcSt11char_traitsIcESaIcEEEP18virtualMemorySpaceEE9_M_valptrEv @1162
    _ZNSt8__detail21_Hash_node_value_baseISt4pairIKNSt7__cxx1112basic_stringIcSt11char_traitsIcESaIcEEEP18virtualMemorySpaceEEC2Ev @1163
    _ZNSt8__detail21_Hash_node_value_baseISt4pairIKNSt7__cxx1112basic_stringIcSt11char_traitsIcESaIcEEESt10shared_ptrI12addressSpaceEEE4_M_vEv @1164
    _ZNSt8__detail21_Hash_node_value_baseISt4pairIKNSt7__cxx1112basic_stringIcSt11char_traitsIcESaIcEEESt10shared_ptrI12addressSpaceEEE9_M_valptrEv @1165
    _ZNSt8__detail21_Hash_node_value_baseISt4pairIKNSt7__cxx1112basic_stringIcSt11char_traitsIcESaIcEEESt10shared_ptrI12addressSpaceEEEC2Ev @1166
    _ZNSt8__detail21_Hashtable_ebo_helperILi0ENS_10_Select1stELb1EE6_S_getERS2_ @1167
    _ZNSt8__detail21_Hashtable_ebo_helperILi0ENS_10_Select1stELb1EE7_S_cgetERKS2_ @1168
    _ZNSt8__detail21_Hashtable_ebo_helperILi0ESaINS_10_Hash_nodeISt4pairIKNSt7__cxx1112basic_stringIcSt11char_traitsIcESaIcEEEP18virtualMemorySpaceELb1EEEELb1EE6_S_getERSF_ @1169
    _ZNSt8__detail21_Hashtable_ebo_helperILi0ESaINS_10_Hash_nodeISt4pairIKNSt7__cxx1112basic_stringIcSt11char_traitsIcESaIcEEEP18virtualMemorySpaceELb1EEEELb1EEC2Ev @1170
    _ZNSt8__detail21_Hashtable_ebo_helperILi0ESaINS_10_Hash_nodeISt4pairIKNSt7__cxx1112basic_stringIcSt11char_traitsIcESaIcEEEP18virtualMemorySpaceELb1EEEELb1EED2Ev @1171
    _ZNSt8__detail21_Hashtable_ebo_helperILi0ESaINS_10_Hash_nodeISt4pairIKNSt7__cxx1112basic_stringIcSt11char_traitsIcESaIcEEESt10shared_ptrI12addressSpaceEELb1EEEELb1EE6_S_getERSG_ @1172
    _ZNSt8__detail21_Hashtable_ebo_helperILi0ESaINS_10_Hash_nodeISt4pairIKNSt7__cxx1112basic_stringIcSt11char_traitsIcESaIcEEESt10shared_ptrI12addressSpaceEELb1EEEELb1EEC2Ev @1173
    _ZNSt8__detail21_Hashtable_ebo_helperILi0ESaINS_10_Hash_nodeISt4pairIKNSt7__cxx1112basic_stringIcSt11char_traitsIcESaIcEEESt10shared_ptrI12addressSpaceEELb1EEEELb1EED2Ev @1174
    _ZNSt8__detail21_Hashtable_ebo_helperILi0ESt8equal_toINSt7__cxx1112basic_stringIcSt11char_traitsIcESaIcEEEELb1EE7_S_cgetERKS9_ @1175
    _ZNSt8__detail21_Hashtable_ebo_helperILi1ESt4hashINSt7__cxx1112basic_stringIcSt11char_traitsIcESaIcEEEELb1EE7_S_cgetERKS9_ @1176
    _ZNSt8__detail21_Hashtable_ebo_helperILi2ENS_18_Mod_range_hashingELb1EE7_S_cgetERKS2_ @1177
    _ZNSt8__detail7_InsertINSt7__cxx1112basic_stringIcSt11char_traitsIcESaIcEEESt4pairIKS6_P18virtualMemorySpaceESaISB_ENS_10_Select1stESt8equal_toIS6_ESt4hashIS6_ENS_18_Mod_range_hashingENS_20_Default_ranged_hashENS_20_Prime_rehash_policyENS_17_Hashtable_traitsILb1ELb0ELb1EEELb0EE6insertIRS7_IS6_SA_EvEES7_INS_14_Node_iteratorISB_Lb0ELb1EEEbEOT_ @1178
    _ZNSt8__detail7_InsertINSt7__cxx1112basic_stringIcSt11char_traitsIcESaIcEEESt4pairIKS6_St10shared_ptrI12addressSpaceEESaISC_ENS_10_Select1stESt8equal_toIS6_ESt4hashIS6_ENS_18_Mod_range_hashingENS_20_Default_ranged_hashENS_20_Prime_rehash_policyENS_17_Hashtable_traitsILb1ELb0ELb1EEELb0EE6insertIRS7_IS6_SB_EvEES7_INS_14_Node_iteratorISC_Lb0ELb1EEEbEOT_ @1179
    _ZNSt8__detail9_Map_baseINSt7__cxx1112basic_stringIcSt11char_traitsIcESaIcEEESt4pairIKS6_P18virtualMemorySpaceESaISB_ENS_10_Select1stESt8equal_toIS6_ESt4hashIS6_ENS_18_Mod_range_hashingENS_20_Default_ranged_hashENS_20_Prime_rehash_policyENS_17_Hashtable_traitsILb1ELb0ELb1EEELb1EE2atERS8_ @1180
    _ZNSt8__detail9_Map_baseINSt7__cxx1112basic_stringIcSt11char_traitsIcESaIcEEESt4pairIKS6_St10shared_ptrI12addressSpaceEESaISC_ENS_10_Select1stESt8equal_toIS6_ESt4hashIS6_ENS_18_Mod_range_hashingENS_20_Default_ranged_hashENS_20_Prime_rehash_policyENS_17_Hashtable_traitsILb1ELb0ELb1EEELb1EE2atERS8_ @1181
    _ZNSt8__detailneISt4pairIKNSt7__cxx1112basic_stringIcSt11char_traitsIcESaIcEEEP18virtualMemorySpaceELb1EEEbRKNS_19_Node_iterator_baseIT_XT0_EEESG_ @1182
    _ZNSt8__detailneISt4pairIKNSt7__cxx1112basic_stringIcSt11char_traitsIcESaIcEEESt10shared_ptrI12addressSpaceEELb1EEEbRKNS_19_Node_iterator_baseIT_XT0_EEESH_ @1183
    _ZSt10_ConstructISt10shared_ptrI12addressSpaceEJS2_EEvPT_DpOT0_ @1184
    _ZSt10_ConstructISt10unique_ptrI14pageVisualizerSt14default_deleteIS1_EEJS4_EEvPT_DpOT0_ @1185
    _ZSt11__addressofINSt8__detail10_Hash_nodeISt4pairIKNSt7__cxx1112basic_stringIcSt11char_traitsIcESaIcEEEP18virtualMemorySpaceELb1EEEEPT_RSE_ @1186
    _ZSt11__addressofINSt8__detail10_Hash_nodeISt4pairIKNSt7__cxx1112basic_stringIcSt11char_traitsIcESaIcEEESt10shared_ptrI12addressSpaceEELb1EEEEPT_RSF_ @1187
    _ZSt11__addressofIPNSt8__detail15_Hash_node_baseEEPT_RS3_ @1188
    _ZSt11__addressofISaISt23_Sp_counted_ptr_inplaceI10loggedPageSaIS1_ELN9__gnu_cxx12_Lock_policyE2EEEEPT_RS7_ @1189
    _ZSt11__addressofISaISt23_Sp_counted_ptr_inplaceI11virtualPageSaIS1_ELN9__gnu_cxx12_Lock_policyE2EEEEPT_RS7_ @1190
    _ZSt11__addressofISaISt23_Sp_counted_ptr_inplaceI14applicationMemSaIS1_ELN9__gnu_cxx12_Lock_policyE2EEEEPT_RS7_ @1191
    _ZSt11__addressofISaISt23_Sp_counted_ptr_inplaceI15memorySpacePageSaIS1_ELN9__gnu_cxx12_Lock_policyE2EEEEPT_RS7_ @1192
    _ZSt11__addressofISaISt23_Sp_counted_ptr_inplaceI7luaPageSaIS1_ELN9__gnu_cxx12_Lock_policyE2EEEEPT_RS7_ @1193
    _ZSt11__addressofISaISt23_Sp_counted_ptr_inplaceI8MPA_pageSaIS1_ELN9__gnu_cxx12_Lock_policyE2EEEEPT_RS7_ @1194
    _ZSt11__addressofISaISt23_Sp_counted_ptr_inplaceI8filePageSaIS1_ELN9__gnu_cxx12_Lock_policyE2EEEEPT_RS7_ @1195
    _ZSt11__addressofISaISt23_Sp_counted_ptr_inplaceI9multiPageSaIS1_ELN9__gnu_cxx12_Lock_policyE2EEEEPT_RS7_ @1196
    _ZSt11__addressofISt10shared_ptrI12addressSpaceEEPT_RS3_ @1197
    _ZSt11__addressofISt10unique_ptrI14pageVisualizerSt14default_deleteIS1_EEEPT_RS5_ @1198
    _ZSt11make_sharedI10loggedPageJRNSt7__cxx1112basic_stringIcSt11char_traitsIcESaIcEEERSt10shared_ptrI12addressSpaceEEES8_IT_EDpOT0_ @1199
    _ZSt11make_sharedI11virtualPageJjEESt10shared_ptrIT_EDpOT0_ @1200
    _ZSt11make_sharedI14applicationMemJRmRjRPcEESt10shared_ptrIT_EDpOT0_ @1201
    _ZSt11make_sharedI15memorySpacePageJRP18virtualMemorySpaceRPcjEESt10shared_ptrIT_EDpOT0_ @1202
    _ZSt11make_sharedI7luaPageJRP9lua_StateRNSt7__cxx1112basic_stringIcSt11char_traitsIcESaIcEEEEESt10shared_ptrIT_EDpOT0_ @1203
    _ZSt11make_sharedI8MPA_pageJEESt10shared_ptrIT_EDpOT0_ @1204
    _ZSt11make_sharedI8filePageJRNSt7__cxx1112basic_stringIcSt11char_traitsIcESaIcEEERjEESt10shared_ptrIT_EDpOT0_ @1205
    _ZSt11make_sharedI9multiPageJEESt10shared_ptrIT_EDpOT0_ @1206
    _ZSt11make_uniqueI14pageVisualizerJRSt10shared_ptrI12addressSpaceEEENSt9_MakeUniqIT_E15__single_objectEDpOT0_ @1207
    _ZSt12__get_helperILj0EP14pageVisualizerJSt14default_deleteIS0_EEERKT0_RKSt11_Tuple_implIXT_EJS4_DpT1_EE @1208
    _ZSt12__get_helperILj0EP14pageVisualizerJSt14default_deleteIS0_EEERT0_RSt11_Tuple_implIXT_EJS4_DpT1_EE @1209
    _ZSt12__get_helperILj1ESt14default_deleteI14pageVisualizerEJEERT0_RSt11_Tuple_implIXT_EJS3_DpT1_EE @1210
    _ZSt12__miter_baseIN9__gnu_cxx17__normal_iteratorIPKPNSt7__cxx1112basic_stringIcSt11char_traitsIcESaIcEEESt6vectorIS8_SaIS8_EEEEET_SF_ @1211
    _ZSt12__miter_baseIN9__gnu_cxx17__normal_iteratorIPSt10shared_ptrI12addressSpaceESt6vectorIS4_SaIS4_EEEEET_SA_ @1212
    _ZSt12__miter_baseIN9__gnu_cxx17__normal_iteratorIPSt10unique_ptrI14pageVisualizerSt14default_deleteIS3_EESt6vectorIS6_SaIS6_EEEEET_SC_ @1213
    _ZSt12__miter_baseIP8quadcordEDTcl12__miter_basecldtfp_4baseEEESt13move_iteratorIT_E @1214
    _ZSt12__miter_baseIP8quadcordET_S2_ @1215
    _ZSt12__miter_baseIPPNSt7__cxx1112basic_stringIcSt11char_traitsIcESaIcEEEEDTcl12__miter_basecldtfp_4baseEEESt13move_iteratorIT_E @1216
    _ZSt12__miter_baseIPPNSt7__cxx1112basic_stringIcSt11char_traitsIcESaIcEEEET_S8_ @1217
    _ZSt12__miter_baseIPmEDTcl12__miter_basecldtfp_4baseEEESt13move_iteratorIT_E @1218
    _ZSt12__miter_baseIPmET_S1_ @1219
    _ZSt12__niter_baseIP8quadcordET_S2_ @1220
    _ZSt12__niter_baseIPKPNSt7__cxx1112basic_stringIcSt11char_traitsIcESaIcEEESt6vectorIS6_SaIS6_EEET_N9__gnu_cxx17__normal_iteratorISC_T0_EE @1221
    _ZSt12__niter_baseIPPNSt7__cxx1112basic_stringIcSt11char_traitsIcESaIcEEEET_S8_ @1222
    _ZSt12__niter_baseIPSt10shared_ptrI12addressSpaceESt6vectorIS2_SaIS2_EEET_N9__gnu_cxx17__normal_iteratorIS7_T0_EE @1223
    _ZSt12__niter_baseIPSt10unique_ptrI14pageVisualizerSt14default_deleteIS1_EESt6vectorIS4_SaIS4_EEET_N9__gnu_cxx17__normal_iteratorIS9_T0_EE @1224
    _ZSt12__niter_baseIPmET_S1_ @1225
    _ZSt12__to_addressINSt8__detail10_Hash_nodeISt4pairIKNSt7__cxx1112basic_stringIcSt11char_traitsIcESaIcEEEP18virtualMemorySpaceELb1EEEEPT_SF_ @1226
    _ZSt12__to_addressINSt8__detail10_Hash_nodeISt4pairIKNSt7__cxx1112basic_stringIcSt11char_traitsIcESaIcEEESt10shared_ptrI12addressSpaceEELb1EEEEPT_SG_ @1227
    _ZSt12__to_addressIPNSt8__detail15_Hash_node_baseEEPT_S4_ @1228
    _ZSt12__to_addressISt23_Sp_counted_ptr_inplaceI10loggedPageSaIS1_ELN9__gnu_cxx12_Lock_policyE2EEEPT_S7_ @1229
    _ZSt12__to_addressISt23_Sp_counted_ptr_inplaceI11virtualPageSaIS1_ELN9__gnu_cxx12_Lock_policyE2EEEPT_S7_ @1230
    _ZSt12__to_addressISt23_Sp_counted_ptr_inplaceI14applicationMemSaIS1_ELN9__gnu_cxx12_Lock_policyE2EEEPT_S7_ @1231
    _ZSt12__to_addressISt23_Sp_counted_ptr_inplaceI15memorySpacePageSaIS1_ELN9__gnu_cxx12_Lock_policyE2EEEPT_S7_ @1232
    _ZSt12__to_addressISt23_Sp_counted_ptr_inplaceI7luaPageSaIS1_ELN9__gnu_cxx12_Lock_policyE2EEEPT_S7_ @1233
    _ZSt12__to_addressISt23_Sp_counted_ptr_inplaceI8MPA_pageSaIS1_ELN9__gnu_cxx12_Lock_policyE2EEEPT_S7_ @1234
    _ZSt12__to_addressISt23_Sp_counted_ptr_inplaceI8filePageSaIS1_ELN9__gnu_cxx12_Lock_policyE2EEEPT_S7_ @1235
    _ZSt12__to_addressISt23_Sp_counted_ptr_inplaceI9multiPageSaIS1_ELN9__gnu_cxx12_Lock_policyE2EEEPT_S7_ @1236
    _ZSt13__copy_move_aILb0EPKPNSt7__cxx1112basic_stringIcSt11char_traitsIcESaIcEEEPS6_ET1_T0_SB_SA_ @1237
    _ZSt13__copy_move_aILb1EP8quadcordS1_ET1_T0_S3_S2_ @1238
    _ZSt13__copy_move_aILb1EPPNSt7__cxx1112basic_stringIcSt11char_traitsIcESaIcEEES7_ET1_T0_S9_S8_ @1239
    _ZSt13__copy_move_aILb1EPSt10shared_ptrI12addressSpaceES3_ET1_T0_S5_S4_ @1240
    _ZSt13__copy_move_aILb1EPSt10unique_ptrI14pageVisualizerSt14default_deleteIS1_EES5_ET1_T0_S7_S6_ @1241
    _ZSt13__copy_move_aILb1EPmS0_ET1_T0_S2_S1_ @1242
    _ZSt13move_backwardIPPNSt7__cxx1112basic_stringIcSt11char_traitsIcESaIcEEES7_ET0_T_S9_S8_ @1243
    _ZSt14__copy_move_a2ILb0EN9__gnu_cxx17__normal_iteratorIPKPNSt7__cxx1112basic_stringIcSt11char_traitsIcESaIcEEESt6vectorIS8_SaIS8_EEEEPS8_ET1_T0_SH_SG_ @1244
    _ZSt14__copy_move_a2ILb1EN9__gnu_cxx17__normal_iteratorIPSt10shared_ptrI12addressSpaceESt6vectorIS4_SaIS4_EEEES9_ET1_T0_SB_SA_ @1245
    _ZSt14__copy_move_a2ILb1EN9__gnu_cxx17__normal_iteratorIPSt10unique_ptrI14pageVisualizerSt14default_deleteIS3_EESt6vectorIS6_SaIS6_EEEESB_ET1_T0_SD_SC_ @1246
    _ZSt14__copy_move_a2ILb1EP8quadcordS1_ET1_T0_S3_S2_ @1247
    _ZSt14__copy_move_a2ILb1EPPNSt7__cxx1112basic_stringIcSt11char_traitsIcESaIcEEES7_ET1_T0_S9_S8_ @1248
    _ZSt14__copy_move_a2ILb1EPmS0_ET1_T0_S2_S1_ @1249
    _ZSt15allocate_sharedI10loggedPageSaIS0_EJRNSt7__cxx1112basic_stringIcSt11char_traitsIcESaIcEEERSt10shared_ptrI12addressSpaceEEES9_IT_ERKT0_DpOT1_ @1250
    _ZSt15allocate_sharedI11virtualPageSaIS0_EJjEESt10shared_ptrIT_ERKT0_DpOT1_ @1251
    _ZSt15allocate_sharedI14applicationMemSaIS0_EJRmRjRPcEESt10shared_ptrIT_ERKT0_DpOT1_ @1252
    _ZSt15allocate_sharedI15memorySpacePageSaIS0_EJRP18virtualMemorySpaceRPcjEESt10shared_ptrIT_ERKT0_DpOT1_ @1253
    _ZSt15allocate_sharedI7luaPageSaIS0_EJRP9lua_StateRNSt7__cxx1112basic_stringIcSt11char_traitsIcESaIcEEEEESt10shared_ptrIT_ERKT0_DpOT1_ @1254
    _ZSt15allocate_sharedI8MPA_pageSaIS0_EJEESt10shared_ptrIT_ERKT0_DpOT1_ @1255
    _ZSt15allocate_sharedI8filePageSaIS0_EJRNSt7__cxx1112basic_stringIcSt11char_traitsIcESaIcEEERjEESt10shared_ptrIT_ERKT0_DpOT1_ @1256
    _ZSt15allocate_sharedI9multiPageSaIS0_EJEESt10shared_ptrIT_ERKT0_DpOT1_ @1257
    _ZSt18__allocate_guardedISaISt23_Sp_counted_ptr_inplaceI10loggedPageSaIS1_ELN9__gnu_cxx12_Lock_policyE2EEEESt15__allocated_ptrIT_ERS8_ @1258
    _ZSt18__allocate_guardedISaISt23_Sp_counted_ptr_inplaceI11virtualPageSaIS1_ELN9__gnu_cxx12_Lock_policyE2EEEESt15__allocated_ptrIT_ERS8_ @1259
    _ZSt18__allocate_guardedISaISt23_Sp_counted_ptr_inplaceI14applicationMemSaIS1_ELN9__gnu_cxx12_Lock_policyE2EEEESt15__allocated_ptrIT_ERS8_ @1260
    _ZSt18__allocate_guardedISaISt23_Sp_counted_ptr_inplaceI15memorySpacePageSaIS1_ELN9__gnu_cxx12_Lock_policyE2EEEESt15__allocated_ptrIT_ERS8_ @1261
    _ZSt18__allocate_guardedISaISt23_Sp_counted_ptr_inplaceI7luaPageSaIS1_ELN9__gnu_cxx12_Lock_policyE2EEEESt15__allocated_ptrIT_ERS8_ @1262
    _ZSt18__allocate_guardedISaISt23_Sp_counted_ptr_inplaceI8MPA_pageSaIS1_ELN9__gnu_cxx12_Lock_policyE2EEEESt15__allocated_ptrIT_ERS8_ @1263
    _ZSt18__allocate_guardedISaISt23_Sp_counted_ptr_inplaceI8filePageSaIS1_ELN9__gnu_cxx12_Lock_policyE2EEEESt15__allocated_ptrIT_ERS8_ @1264
    _ZSt18__allocate_guardedISaISt23_Sp_counted_ptr_inplaceI9multiPageSaIS1_ELN9__gnu_cxx12_Lock_policyE2EEEESt15__allocated_ptrIT_ERS8_ @1265
    _ZSt18uninitialized_copyIN9__gnu_cxx17__normal_iteratorIPKPNSt7__cxx1112basic_stringIcSt11char_traitsIcESaIcEEESt6vectorIS8_SaIS8_EEEEPS8_ET0_T_SH_SG_ @1266
    _ZSt18uninitialized_copyISt13move_iteratorIP8quadcordES2_ET0_T_S5_S4_ @1267
    _ZSt18uninitialized_copyISt13move_iteratorIPPNSt7__cxx1112basic_stringIcSt11char_traitsIcESaIcEEEES8_ET0_T_SB_SA_ @1268
    _ZSt18uninitialized_copyISt13move_iteratorIPSt10shared_ptrI12addressSpaceEES4_ET0_T_S7_S6_ @1269
    _ZSt18uninitialized_copyISt13move_iteratorIPSt10unique_ptrI14pageVisualizerSt14default_deleteIS2_EEES6_ET0_T_S9_S8_ @1270
    _ZSt18uninitialized_copyISt13move_iteratorIPmES1_ET0_T_S4_S3_ @1271
    _ZSt20dynamic_pointer_castI9multiPage12addressSpaceESt10shared_ptrIT_ERKS2_IT0_E @1272
    _ZSt22__copy_move_backward_aILb1EPPNSt7__cxx1112basic_stringIcSt11char_traitsIcESaIcEEES7_ET1_T0_S9_S8_ @1273
    _ZSt22__uninitialized_copy_aIN9__gnu_cxx17__normal_iteratorIPKPNSt7__cxx1112basic_stringIcSt11char_traitsIcESaIcEEESt6vectorIS8_SaIS8_EEEEPS8_S8_ET0_T_SH_SG_RSaIT1_E @1274
    _ZSt22__uninitialized_copy_aISt13move_iteratorIP8quadcordES2_S1_ET0_T_S5_S4_RSaIT1_E @1275
    _ZSt22__uninitialized_copy_aISt13move_iteratorIPPNSt7__cxx1112basic_stringIcSt11char_traitsIcESaIcEEEES8_S7_ET0_T_SB_SA_RSaIT1_E @1276
    _ZSt22__uninitialized_copy_aISt13move_iteratorIPSt10shared_ptrI12addressSpaceEES4_S3_ET0_T_S7_S6_RSaIT1_E @1277
    _ZSt22__uninitialized_copy_aISt13move_iteratorIPSt10unique_ptrI14pageVisualizerSt14default_deleteIS2_EEES6_S5_ET0_T_S9_S8_RSaIT1_E @1278
    _ZSt22__uninitialized_copy_aISt13move_iteratorIPmES1_mET0_T_S4_S3_RSaIT1_E @1279
    _ZSt23__copy_move_backward_a2ILb1EPPNSt7__cxx1112basic_stringIcSt11char_traitsIcESaIcEEES7_ET1_T0_S9_S8_ @1280
    _ZSt32__make_move_if_noexcept_iteratorI8quadcordSt13move_iteratorIPS0_EET0_PT_ @1281
    _ZSt32__make_move_if_noexcept_iteratorIPNSt7__cxx1112basic_stringIcSt11char_traitsIcESaIcEEESt13move_iteratorIPS6_EET0_PT_ @1282
    _ZSt32__make_move_if_noexcept_iteratorISt10shared_ptrI12addressSpaceESt13move_iteratorIPS2_EET0_PT_ @1283
    _ZSt32__make_move_if_noexcept_iteratorISt10unique_ptrI14pageVisualizerSt14default_deleteIS1_EESt13move_iteratorIPS4_EET0_PT_ @1284
    _ZSt32__make_move_if_noexcept_iteratorImSt13move_iteratorIPmEET0_PT_ @1285
    _ZSt34__uninitialized_move_if_noexcept_aIP8quadcordS1_SaIS0_EET0_T_S4_S3_RT1_ @1286
    _ZSt34__uninitialized_move_if_noexcept_aIPPNSt7__cxx1112basic_stringIcSt11char_traitsIcESaIcEEES7_SaIS6_EET0_T_SA_S9_RT1_ @1287
    _ZSt34__uninitialized_move_if_noexcept_aIPSt10shared_ptrI12addressSpaceES3_SaIS2_EET0_T_S6_S5_RT1_ @1288
    _ZSt34__uninitialized_move_if_noexcept_aIPSt10unique_ptrI14pageVisualizerSt14default_deleteIS1_EES5_SaIS4_EET0_T_S8_S7_RT1_ @1289
    _ZSt34__uninitialized_move_if_noexcept_aIPmS0_SaImEET0_T_S3_S2_RT1_ @1290
    _ZSt3absd @1291
    _ZSt3getILj0EJP14pageVisualizerSt14default_deleteIS0_EEERKNSt13tuple_elementIXT_ESt5tupleIJDpT0_EEE4typeERKS8_ @1292
    _ZSt3getILj0EJP14pageVisualizerSt14default_deleteIS0_EEERNSt13tuple_elementIXT_ESt5tupleIJDpT0_EEE4typeERS8_ @1293
    _ZSt3getILj0EKNSt7__cxx1112basic_stringIcSt11char_traitsIcESaIcEEEP18virtualMemorySpaceERNSt13tuple_elementIXT_ESt4pairIT0_T1_EE4typeERSD_ @1294
    _ZSt3getILj0EKNSt7__cxx1112basic_stringIcSt11char_traitsIcESaIcEEESt10shared_ptrI12addressSpaceEERNSt13tuple_elementIXT_ESt4pairIT0_T1_EE4typeERSE_ @1295
    _ZSt3getILj1EJP14pageVisualizerSt14default_deleteIS0_EEERNSt13tuple_elementIXT_ESt5tupleIJDpT0_EEE4typeERS8_ @1296
    _ZSt3maxIjERKT_S2_S2_ @1297
    _ZSt4copyIN9__gnu_cxx17__normal_iteratorIPKPNSt7__cxx1112basic_stringIcSt11char_traitsIcESaIcEEESt6vectorIS8_SaIS8_EEEEPS8_ET0_T_SH_SG_ @1298
    _ZSt4copyISt13move_iteratorIP8quadcordES2_ET0_T_S5_S4_ @1299
    _ZSt4copyISt13move_iteratorIPPNSt7__cxx1112basic_stringIcSt11char_traitsIcESaIcEEEES8_ET0_T_SB_SA_ @1300
    _ZSt4copyISt13move_iteratorIPmES1_ET0_T_S4_S3_ @1301
    _ZSt4fmodIdiEN9__gnu_cxx11__promote_2IT_T0_NS0_9__promoteIS2_XsrSt12__is_integerIS2_E7__valueEE6__typeENS4_IS3_XsrS5_IS3_E7__valueEE6__typeEE6__typeES2_S3_ @1302
    _ZSt4moveIN9__gnu_cxx17__normal_iteratorIPSt10shared_ptrI12addressSpaceESt6vectorIS4_SaIS4_EEEES9_ET0_T_SB_SA_ @1303
    _ZSt4moveIN9__gnu_cxx17__normal_iteratorIPSt10unique_ptrI14pageVisualizerSt14default_deleteIS3_EESt6vectorIS6_SaIS6_EEEESB_ET0_T_SD_SC_ @1304
    _ZSt4moveIRKSaI10loggedPageEEONSt16remove_referenceIT_E4typeEOS5_ @1305
    _ZSt4moveIRKSaI11virtualPageEEONSt16remove_referenceIT_E4typeEOS5_ @1306
    _ZSt4moveIRKSaI14applicationMemEEONSt16remove_referenceIT_E4typeEOS5_ @1307
    _ZSt4moveIRKSaI15memorySpacePageEEONSt16remove_referenceIT_E4typeEOS5_ @1308
    _ZSt4moveIRKSaI7luaPageEEONSt16remove_referenceIT_E4typeEOS5_ @1309
    _ZSt4moveIRKSaI8MPA_pageEEONSt16remove_referenceIT_E4typeEOS5_ @1310
    _ZSt4moveIRKSaI8filePageEEONSt16remove_referenceIT_E4typeEOS5_ @1311
    _ZSt4moveIRKSaI9multiPageEEONSt16remove_referenceIT_E4typeEOS5_ @1312
    _ZSt4moveIRNSt7__cxx1112basic_stringIcSt11char_traitsIcESaIcEEEEONSt16remove_referenceIT_E4typeEOS8_ @1313
    _ZSt4moveIRP12addressSpaceEONSt16remove_referenceIT_E4typeEOS4_ @1314
    _ZSt4moveIRP14pageVisualizerEONSt16remove_referenceIT_E4typeEOS4_ @1315
    _ZSt4moveIRPNSt7__cxx1112basic_stringIcSt11char_traitsIcESaIcEEEEONSt16remove_referenceIT_E4typeEOS9_ @1316
    _ZSt4moveIRSt10shared_ptrI11virtualPageEEONSt16remove_referenceIT_E4typeEOS5_ @1317
    _ZSt4moveIRSt10shared_ptrI12addressSpaceEEONSt16remove_referenceIT_E4typeEOS5_ @1318
    _ZSt4moveIRSt10shared_ptrI14applicationMemEEONSt16remove_referenceIT_E4typeEOS5_ @1319
    _ZSt4moveIRSt10shared_ptrI15memorySpacePageEEONSt16remove_referenceIT_E4typeEOS5_ @1320
    _ZSt4moveIRSt10unique_ptrI14pageVisualizerSt14default_deleteIS1_EEEONSt16remove_referenceIT_E4typeEOS7_ @1321
    _ZSt4moveIRSt12__shared_ptrI12addressSpaceLN9__gnu_cxx12_Lock_policyE2EEEONSt16remove_referenceIT_E4typeEOS7_ @1322
    _ZSt4moveIRmEONSt16remove_referenceIT_E4typeEOS2_ @1323
    _ZSt4swapIP12addressSpaceENSt9enable_ifIXsrSt6__and_IJSt6__not_ISt15__is_tuple_likeIT_EESt21is_move_constructibleIS6_ESt18is_move_assignableIS6_EEE5valueEvE4typeERS6_SG_ @1324
    _ZSt4swapIP14pageVisualizerENSt9enable_ifIXsrSt6__and_IJSt6__not_ISt15__is_tuple_likeIT_EESt21is_move_constructibleIS6_ESt18is_move_assignableIS6_EEE5valueEvE4typeERS6_SG_ @1325
    _ZSt7forwardINSt8__detail14_Node_iteratorISt4pairIKNSt7__cxx1112basic_stringIcSt11char_traitsIcESaIcEEEP18virtualMemorySpaceELb0ELb1EEEEOT_RNSt16remove_referenceISE_E4typeE @1326
    _ZSt7forwardINSt8__detail14_Node_iteratorISt4pairIKNSt7__cxx1112basic_stringIcSt11char_traitsIcESaIcEEESt10shared_ptrI12addressSpaceEELb0ELb1EEEEOT_RNSt16remove_referenceISF_E4typeE @1327
    _ZSt7forwardIPNSt7__cxx1112basic_stringIcSt11char_traitsIcESaIcEEEEOT_RNSt16remove_referenceIS7_E4typeE @1328
    _ZSt7forwardIRK8quadcordEOT_RNSt16remove_referenceIS3_E4typeE @1329
    _ZSt7forwardIRKSt10shared_ptrI12addressSpaceEEOT_RNSt16remove_referenceIS5_E4typeE @1330
    _ZSt7forwardIRNSt7__cxx1112basic_stringIcSt11char_traitsIcESaIcEEEEOT_RNSt16remove_referenceIS7_E4typeE @1331
    _ZSt7forwardIRP14pageVisualizerEOT_RNSt16remove_referenceIS3_E4typeE @1332
    _ZSt7forwardIRP18virtualMemorySpaceEOT_RNSt16remove_referenceIS3_E4typeE @1333
    _ZSt7forwardIRP9lua_StateEOT_RNSt16remove_referenceIS3_E4typeE @1334
    _ZSt7forwardIRPKcEOT_RNSt16remove_referenceIS3_E4typeE @1335
    _ZSt7forwardIRPcEOT_RNSt16remove_referenceIS2_E4typeE @1336
    _ZSt7forwardIRSt10shared_ptrI10loggedPageEEOT_RNSt16remove_referenceIS4_E4typeE @1337
    _ZSt7forwardIRSt10shared_ptrI12addressSpaceEEOT_RNSt16remove_referenceIS4_E4typeE @1338
    _ZSt7forwardIRSt10shared_ptrI7luaPageEEOT_RNSt16remove_referenceIS4_E4typeE @1339
    _ZSt7forwardIRSt10shared_ptrI8MPA_pageEEOT_RNSt16remove_referenceIS4_E4typeE @1340
    _ZSt7forwardIRSt10shared_ptrI8filePageEEOT_RNSt16remove_referenceIS4_E4typeE @1341
    _ZSt7forwardIRSt10shared_ptrI9multiPageEEOT_RNSt16remove_referenceIS4_E4typeE @1342
    _ZSt7forwardIRSt4pairIKNSt7__cxx1112basic_stringIcSt11char_traitsIcESaIcEEEP18virtualMemorySpaceEEOT_RNSt16remove_referenceISC_E4typeE @1343
    _ZSt7forwardIRSt4pairIKNSt7__cxx1112basic_stringIcSt11char_traitsIcESaIcEEESt10shared_ptrI12addressSpaceEEEOT_RNSt16remove_referenceISD_E4typeE @1344
    _ZSt7forwardIRSt4pairINSt7__cxx1112basic_stringIcSt11char_traitsIcESaIcEEEP18virtualMemorySpaceEEOT_RNSt16remove_referenceISB_E4typeE @1345
    _ZSt7forwardIRSt4pairINSt7__cxx1112basic_stringIcSt11char_traitsIcESaIcEEESt10shared_ptrI12addressSpaceEEEOT_RNSt16remove_referenceISC_E4typeE @1346
    _ZSt7forwardIRjEOT_RNSt16remove_referenceIS1_E4typeE @1347
    _ZSt7forwardIRmEOT_RNSt16remove_referenceIS1_E4typeE @1348
    _ZSt7forwardISt10shared_ptrI12addressSpaceEEOT_RNSt16remove_referenceIS3_E4typeE @1349
    _ZSt7forwardISt10unique_ptrI14pageVisualizerSt14default_deleteIS1_EEEOT_RNSt16remove_referenceIS5_E4typeE @1350
    _ZSt7forwardISt14default_deleteI14pageVisualizerEEOT_RNSt16remove_referenceIS3_E4typeE @1351
    _ZSt7forwardIbEOT_RNSt16remove_referenceIS0_E4typeE @1352
    _ZSt7forwardIjEOT_RNSt16remove_referenceIS0_E4typeE @1353
    _ZSt7forwardImEOT_RNSt16remove_referenceIS0_E4typeE @1354
    _ZSt8_DestroyIP8quadcordEvT_S2_ @1355
    _ZSt8_DestroyIP8quadcordS0_EvT_S2_RSaIT0_E @1356
    _ZSt8_DestroyIPP18memoryPageAccessorEvT_S3_ @1357
    _ZSt8_DestroyIPP18memoryPageAccessorS1_EvT_S3_RSaIT0_E @1358
    _ZSt8_DestroyIPPNSt7__cxx1112basic_stringIcSt11char_traitsIcESaIcEEEEvT_S8_ @1359
    _ZSt8_DestroyIPPNSt7__cxx1112basic_stringIcSt11char_traitsIcESaIcEEES6_EvT_S8_RSaIT0_E @1360
    _ZSt8_DestroyIPSt10shared_ptrI12addressSpaceEEvT_S4_ @1361
    _ZSt8_DestroyIPSt10shared_ptrI12addressSpaceES2_EvT_S4_RSaIT0_E @1362
    _ZSt8_DestroyIPSt10unique_ptrI14pageVisualizerSt14default_deleteIS1_EEEvT_S6_ @1363
    _ZSt8_DestroyIPSt10unique_ptrI14pageVisualizerSt14default_deleteIS1_EES4_EvT_S6_RSaIT0_E @1364
    _ZSt8_DestroyIPmEvT_S1_ @1365
    _ZSt8_DestroyIPmmEvT_S1_RSaIT0_E @1366
    _ZSt8_DestroyISt10shared_ptrI12addressSpaceEEvPT_ @1367
    _ZSt8_DestroyISt10unique_ptrI14pageVisualizerSt14default_deleteIS1_EEEvPT_ @1368
    _ZSt9addressofINSt8__detail10_Hash_nodeISt4pairIKNSt7__cxx1112basic_stringIcSt11char_traitsIcESaIcEEEP18virtualMemorySpaceELb1EEEEPT_RSE_ @1369
    _ZSt9addressofINSt8__detail10_Hash_nodeISt4pairIKNSt7__cxx1112basic_stringIcSt11char_traitsIcESaIcEEESt10shared_ptrI12addressSpaceEELb1EEEEPT_RSF_ @1370
    _ZSt9addressofIPNSt8__detail15_Hash_node_baseEEPT_RS3_ @1371
    _ZSt9make_pairINSt8__detail14_Node_iteratorISt4pairIKNSt7__cxx1112basic_stringIcSt11char_traitsIcESaIcEEEP18virtualMemorySpaceELb0ELb1EEEbES2_INSt17__decay_and_stripIT_E6__typeENSE_IT0_E6__typeEEOSF_OSI_ @1372
    _ZSt9make_pairINSt8__detail14_Node_iteratorISt4pairIKNSt7__cxx1112basic_stringIcSt11char_traitsIcESaIcEEESt10shared_ptrI12addressSpaceEELb0ELb1EEEbES2_INSt17__decay_and_stripIT_E6__typeENSF_IT0_E6__typeEEOSG_OSJ_ @1373
    _ZSteqIPSt10shared_ptrI12addressSpaceEEbRKSt13move_iteratorIT_ES8_ @1374
    _ZSteqIPSt10unique_ptrI14pageVisualizerSt14default_deleteIS1_EEEbRKSt13move_iteratorIT_ESA_ @1375
    _ZSteqIcEN9__gnu_cxx11__enable_ifIXsrSt9__is_charIT_E7__valueEbE6__typeERKNSt7__cxx1112basic_stringIS3_St11char_traitsIS3_ESaIS3_EEESE_ @1376
    _ZSteqIcSt11char_traitsIcESaIcEEbRKNSt7__cxx1112basic_stringIT_T0_T1_EEPKS5_ @1377
    _ZStneIPSt10shared_ptrI12addressSpaceEEbRKSt13move_iteratorIT_ES8_ @1378
    _ZStneIPSt10unique_ptrI14pageVisualizerSt14default_deleteIS1_EEEbRKSt13move_iteratorIT_ESA_ @1379
    _ZStplIcSt11char_traitsIcESaIcEENSt7__cxx1112basic_stringIT_T0_T1_EEOS8_PKS5_ @1380
    _ZTI10loggedPage @1381 DATA
    _ZTI11virtualPage @1382 DATA
    _ZTI12addressSpace @1383 DATA
    _ZTI12callbackPage @1384 DATA
    _ZTI14applicationMem @1385 DATA
    _ZTI15memorySpacePage @1386 DATA
    _ZTI7luaPage @1387 DATA
    _ZTI8MPA_page @1388 DATA
    _ZTI8filePage @1389 DATA
    _ZTI9multiPage @1390 DATA
    _ZTISt11_Mutex_baseILN9__gnu_cxx12_Lock_policyE2EE @1391 DATA
    _ZTISt11logic_error @1392 DATA
    _ZTISt12out_of_range @1393 DATA
    _ZTISt16_Sp_counted_baseILN9__gnu_cxx12_Lock_policyE2EE @1394 DATA
    _ZTISt19_Sp_make_shared_tag @1395 DATA
    _ZTISt23_Sp_counted_ptr_inplaceI10loggedPageSaIS0_ELN9__gnu_cxx12_Lock_policyE2EE @1396 DATA
    _ZTISt23_Sp_counted_ptr_inplaceI11virtualPageSaIS0_ELN9__gnu_cxx12_Lock_policyE2EE @1397 DATA
    _ZTISt23_Sp_counted_ptr_inplaceI14applicationMemSaIS0_ELN9__gnu_cxx12_Lock_policyE2EE @1398 DATA
    _ZTISt23_Sp_counted_ptr_inplaceI15memorySpacePageSaIS0_ELN9__gnu_cxx12_Lock_policyE2EE @1399 DATA
    _ZTISt23_Sp_counted_ptr_inplaceI7luaPageSaIS0_ELN9__gnu_cxx12_Lock_policyE2EE @1400 DATA
    _ZTISt23_Sp_counted_ptr_inplaceI8MPA_pageSaIS0_ELN9__gnu_cxx12_Lock_policyE2EE @1401 DATA
    _ZTISt23_Sp_counted_ptr_inplaceI8filePageSaIS0_ELN9__gnu_cxx12_Lock_policyE2EE @1402 DATA
    _ZTISt23_Sp_counted_ptr_inplaceI9multiPageSaIS0_ELN9__gnu_cxx12_Lock_policyE2EE @1403 DATA
    _ZTISt9exception @1404 DATA
    _ZTS10loggedPage @1405 DATA
    _ZTS11virtualPage @1406 DATA
    _ZTS12addressSpace @1407 DATA
    _ZTS12callbackPage @1408 DATA
    _ZTS14applicationMem @1409 DATA
    _ZTS15memorySpacePage @1410 DATA
    _ZTS7luaPage @1411 DATA
    _ZTS8MPA_page @1412 DATA
    _ZTS8filePage @1413 DATA
    _ZTS9multiPage @1414 DATA
    _ZTSSt11_Mutex_baseILN9__gnu_cxx12_Lock_policyE2EE @1415 DATA
    _ZTSSt11logic_error @1416 DATA
    _ZTSSt12out_of_range @1417 DATA
    _ZTSSt16_Sp_counted_baseILN9__gnu_cxx12_Lock_policyE2EE @1418 DATA
    _ZTSSt19_Sp_make_shared_tag @1419 DATA
    _ZTSSt23_Sp_counted_ptr_inplaceI10loggedPageSaIS0_ELN9__gnu_cxx12_Lock_policyE2EE @1420 DATA
    _ZTSSt23_Sp_counted_ptr_inplaceI11virtualPageSaIS0_ELN9__gnu_cxx12_Lock_policyE2EE @1421 DATA
    _ZTSSt23_Sp_counted_ptr_inplaceI14applicationMemSaIS0_ELN9__gnu_cxx12_Lock_policyE2EE @1422 DATA
    _ZTSSt23_Sp_counted_ptr_inplaceI15memorySpacePageSaIS0_ELN9__gnu_cxx12_Lock_policyE2EE @1423 DATA
    _ZTSSt23_Sp_counted_ptr_inplaceI7luaPageSaIS0_ELN9__gnu_cxx12_Lock_policyE2EE @1424 DATA
    _ZTSSt23_Sp_counted_ptr_inplaceI8MPA_pageSaIS0_ELN9__gnu_cxx12_Lock_policyE2EE @1425 DATA
    _ZTSSt23_Sp_counted_ptr_inplaceI8filePageSaIS0_ELN9__gnu_cxx12_Lock_policyE2EE @1426 DATA
    _ZTSSt23_Sp_counted_ptr_inplaceI9multiPageSaIS0_ELN9__gnu_cxx12_Lock_policyE2EE @1427 DATA
    _ZTSSt9exception @1428 DATA
    _ZTV10loggedPage @1429 DATA
    _ZTV11virtualPage @1430 DATA
    _ZTV12addressSpace @1431 DATA
    _ZTV12callbackPage @1432 DATA
    _ZTV14applicationMem @1433 DATA
    _ZTV15memorySpacePage @1434 DATA
    _ZTV7luaPage @1435 DATA
    _ZTV8MPA_page @1436 DATA
    _ZTV8filePage @1437 DATA
    _ZTV9multiPage @1438 DATA
    _ZTVSt16_Sp_counted_baseILN9__gnu_cxx12_Lock_policyE2EE @1439 DATA
    _ZTVSt23_Sp_counted_ptr_inplaceI10loggedPageSaIS0_ELN9__gnu_cxx12_Lock_policyE2EE @1440 DATA
    _ZTVSt23_Sp_counted_ptr_inplaceI11virtualPageSaIS0_ELN9__gnu_cxx12_Lock_policyE2EE @1441 DATA
    _ZTVSt23_Sp_counted_ptr_inplaceI14applicationMemSaIS0_ELN9__gnu_cxx12_Lock_policyE2EE @1442 DATA
    _ZTVSt23_Sp_counted_ptr_inplaceI15memorySpacePageSaIS0_ELN9__gnu_cxx12_Lock_policyE2EE @1443 DATA
    _ZTVSt23_Sp_counted_ptr_inplaceI7luaPageSaIS0_ELN9__gnu_cxx12_Lock_policyE2EE @1444 DATA
    _ZTVSt23_Sp_counted_ptr_inplaceI8MPA_pageSaIS0_ELN9__gnu_cxx12_Lock_policyE2EE @1445 DATA
    _ZTVSt23_Sp_counted_ptr_inplaceI8filePageSaIS0_ELN9__gnu_cxx12_Lock_policyE2EE @1446 DATA
    _ZTVSt23_Sp_counted_ptr_inplaceI9multiPageSaIS0_ELN9__gnu_cxx12_Lock_policyE2EE @1447 DATA
    _ZdlPvS_ @1448
    _ZnwjPv @1449
    __deregister_frame @1450
    __deregister_frame_info @1451
    __deregister_frame_info_bases @1452
    __emutls_get_address @1453
    __emutls_register_common @1454
    __frame_state_for @1455
    __pth_gpointer_locked @1456
    __pthread_clock_nanosleep @1457
    __pthread_shallcancel @1458
    __register_frame @1459
    __register_frame_info @1460
    __register_frame_info_bases @1461
    __register_frame_info_table @1462
    __register_frame_info_table_bases @1463
    __register_frame_table @1464
    __xl_f @1465 DATA
    _pthread_cleanup_dest @1466
    _pthread_get_state @1467
    _pthread_invoke_cancel @1468
    _pthread_key_dest @1469 DATA
    _pthread_rel_time_in_ms @1470
    _pthread_set_state @1471
    _pthread_setnobreak @1472
    _pthread_time_in_ms @1473
    _pthread_time_in_ms_from_timespec @1474
    _pthread_tryjoin @1475
    cond_print @1476
    cond_print_set @1477
    do_sema_b_wait_intern @1478
    luaC_barrier_ @1479
    luaC_barrierback_ @1480
    luaC_changemode @1481
    luaC_checkfinalizer @1482
    luaC_fix @1483
    luaC_freeallobjects @1484
    luaC_fullgc @1485
    luaC_newobj @1486
    luaC_runtilstate @1487
    luaC_step @1488
    luaD_call @1489
    luaD_callnoyield @1490
    luaD_closeprotected @1491
    luaD_growstack @1492
    luaD_hook @1493
    luaD_hookcall @1494
    luaD_inctop @1495
    luaD_pcall @1496
    luaD_poscall @1497
    luaD_precall @1498
    luaD_pretailcall @1499
    luaD_protectedparser @1500
    luaD_rawrunprotected @1501
    luaD_reallocstack @1502
    luaD_seterrorobj @1503
    luaD_shrinkstack @1504
    luaD_throw @1505
    luaD_tryfuncTM @1506
    luaE_checkcstack @1507
    luaE_extendCI @1508
    luaE_freeCI @1509
    luaE_freethread @1510
    luaE_incCstack @1511
    luaE_resetthread @1512
    luaE_setdebt @1513
    luaE_shrinkCI @1514
    luaE_warnerror @1515
    luaE_warning @1516
    luaF_close @1517
    luaF_closeupval @1518
    luaF_findupval @1519
    luaF_freeproto @1520
    luaF_getlocalname @1521
    luaF_initupvals @1522
    luaF_newCclosure @1523
    luaF_newLclosure @1524
    luaF_newproto @1525
    luaF_newtbcupval @1526
    luaF_unlinkupval @1527
    luaG_addinfo @1528
    luaG_callerror @1529
    luaG_concaterror @1530
    luaG_errormsg @1531
    luaG_findlocal @1532
    luaG_forerror @1533
    luaG_getfuncline @1534
    luaG_opinterror @1535
    luaG_ordererror @1536
    luaG_runerror @1537
    luaG_tointerror @1538
    luaG_traceexec @1539
    luaG_typeerror @1540
    luaH_finishset @1541
    luaH_free @1542
    luaH_get @1543
    luaH_getint @1544
    luaH_getn @1545
    luaH_getshortstr @1546
    luaH_getstr @1547
    luaH_new @1548
    luaH_newkey @1549
    luaH_next @1550
    luaH_realasize @1551
    luaH_resize @1552
    luaH_resizearray @1553
    luaH_set @1554
    luaH_setint @1555
    luaK_checkstack @1556
    luaK_code @1557
    luaK_codeABCk @1558
    luaK_codeABx @1559
    luaK_codeAsBx @1560
    luaK_concat @1561
    luaK_dischargevars @1562
    luaK_exp2RK @1563
    luaK_exp2anyreg @1564
    luaK_exp2anyregup @1565
    luaK_exp2const @1566
    luaK_exp2nextreg @1567
    luaK_exp2val @1568
    luaK_finish @1569
    luaK_fixline @1570
    luaK_getlabel @1571
    luaK_goiffalse @1572
    luaK_goiftrue @1573
    luaK_indexed @1574
    luaK_infix @1575
    luaK_int @1576
    luaK_isKint @1577
    luaK_jump @1578
    luaK_nil @1579
    luaK_patchlist @1580
    luaK_patchtohere @1581
    luaK_posfix @1582
    luaK_prefix @1583
    luaK_reserveregs @1584
    luaK_ret @1585
    luaK_self @1586
    luaK_semerror @1587
    luaK_setlist @1588
    luaK_setoneret @1589
    luaK_setreturns @1590
    luaK_settablesize @1591
    luaK_storevar @1592
    luaL_addgsub @1593
    luaL_addlstring @1594
    luaL_addstring @1595
    luaL_addvalue @1596
    luaL_argerror @1597
    luaL_buffinit @1598
    luaL_buffinitsize @1599
    luaL_callmeta @1600
    luaL_checkany @1601
    luaL_checkinteger @1602
    luaL_checklstring @1603
    luaL_checknumber @1604
    luaL_checkoption @1605
    luaL_checkstack @1606
    luaL_checktype @1607
    luaL_checkudata @1608
    luaL_checkversion_ @1609
    luaL_error @1610
    luaL_execresult @1611
    luaL_fileresult @1612
    luaL_getmetafield @1613
    luaL_getsubtable @1614
    luaL_gsub @1615
    luaL_len @1616
    luaL_loadbufferx @1617
    luaL_loadfilex @1618
    luaL_loadstring @1619
    luaL_newmetatable @1620
    luaL_newstate @1621
    luaL_openlibs @1622
    luaL_optinteger @1623
    luaL_optlstring @1624
    luaL_optnumber @1625
    luaL_prepbuffsize @1626
    luaL_pushresult @1627
    luaL_pushresultsize @1628
    luaL_ref @1629
    luaL_requiref @1630
    luaL_setfuncs @1631
    luaL_setmetatable @1632
    luaL_testudata @1633
    luaL_tolstring @1634
    luaL_traceback @1635
    luaL_typeerror @1636
    luaL_unref @1637
    luaL_where @1638
    luaM_free_ @1639
    luaM_growaux_ @1640
    luaM_malloc_ @1641
    luaM_realloc_ @1642
    luaM_saferealloc_ @1643
    luaM_shrinkvector_ @1644
    luaM_toobig @1645
    luaO_arith @1646
    luaO_ceillog2 @1647
    luaO_chunkid @1648
    luaO_hexavalue @1649
    luaO_pushfstring @1650
    luaO_pushvfstring @1651
    luaO_rawarith @1652
    luaO_str2num @1653
    luaO_tostring @1654
    luaO_utf8esc @1655
    luaP_opmodes @1656 DATA
    luaS_clearcache @1657
    luaS_createlngstrobj @1658
    luaS_eqlngstr @1659
    luaS_hash @1660
    luaS_hashlongstr @1661
    luaS_init @1662
    luaS_new @1663
    luaS_newlstr @1664
    luaS_newudata @1665
    luaS_remove @1666
    luaS_resize @1667
    luaT_adjustvarargs @1668
    luaT_callTM @1669
    luaT_callTMres @1670
    luaT_callorderTM @1671
    luaT_callorderiTM @1672
    luaT_gettm @1673
    luaT_gettmbyobj @1674
    luaT_getvarargs @1675
    luaT_init @1676
    luaT_objtypename @1677
    luaT_trybinTM @1678
    luaT_trybinassocTM @1679
    luaT_trybiniTM @1680
    luaT_tryconcatTM @1681
    luaT_typenames_ @1682 DATA
    luaU_dump @1683
    luaU_undump @1684
    luaV_concat @1685
    luaV_equalobj @1686
    luaV_execute @1687
    luaV_finishOp @1688
    luaV_finishget @1689
    luaV_finishset @1690
    luaV_flttointeger @1691
    luaV_idiv @1692
    luaV_lessequal @1693
    luaV_lessthan @1694
    luaV_mod @1695
    luaV_modf @1696
    luaV_objlen @1697
    luaV_shiftl @1698
    luaV_tointeger @1699
    luaV_tointegerns @1700
    luaV_tonumber_ @1701
    luaX_init @1702
    luaX_lookahead @1703
    luaX_newstring @1704
    luaX_next @1705
    luaX_setinput @1706
    luaX_syntaxerror @1707
    luaX_token2str @1708
    luaY_nvarstack @1709
    luaY_parser @1710
    luaZ_fill @1711
    luaZ_init @1712
    luaZ_read @1713
    lua_Beep @1714
    lua_CreateMemoryContext @1715
    lua_DestroyMemoryContext @1716
    lua_RegisterMemoryFunctions @1717
    lua_Sleep @1718
    lua_absindex @1719
    lua_addFilePage @1720
    lua_addInterprocessPage @1721
    lua_addLoggedPage @1722
    lua_addLuaPage @1723
    lua_addMPA_Page @1724
    lua_addMetaPage @1725
    lua_addMultiPage @1726
    lua_addVirtualPage @1727
    lua_arith @1728
    lua_atpanic @1729
    lua_callk @1730
    lua_checkstack @1731
    lua_close @1732
    lua_closeslot @1733
    lua_compare @1734
    lua_concat @1735
    lua_copy @1736
    lua_createtable @1737
    lua_destroyPage @1738
    lua_dump @1739
    lua_error @1740
    lua_gc @1741
    lua_getallocf @1742
    lua_getfield @1743
    lua_getglobal @1744
    lua_gethook @1745
    lua_gethookcount @1746
    lua_gethookmask @1747
    lua_geti @1748
    lua_getinfo @1749
    lua_getiuservalue @1750
    lua_getlocal @1751
    lua_getmetatable @1752
    lua_getstack @1753
    lua_gettable @1754
    lua_gettop @1755
    lua_getupvalue @1756
    lua_handle_error @1757
    lua_ident @1758 DATA
    lua_iscfunction @1759
    lua_isinteger @1760
    lua_isnumber @1761
    lua_isstring @1762
    lua_isuserdata @1763
    lua_isyieldable @1764
    lua_len @1765
    lua_linkPageToMemorySpace @1766
    lua_load @1767
    lua_multiPageSwapBanks @1768
    lua_newstate @1769
    lua_newthread @1770
    lua_newuserdatauv @1771
    lua_next @1772
    lua_pcallk @1773
    lua_pushboolean @1774
    lua_pushcclosure @1775
    lua_pushfstring @1776
    lua_pushinteger @1777
    lua_pushlightuserdata @1778
    lua_pushlstring @1779
    lua_pushnil @1780
    lua_pushnumber @1781
    lua_pushstring @1782
    lua_pushthread @1783
    lua_pushvalue @1784
    lua_pushvfstring @1785
    lua_rawequal @1786
    lua_rawget @1787
    lua_rawgeti @1788
    lua_rawgetp @1789
    lua_rawlen @1790
    lua_rawset @1791
    lua_rawseti @1792
    lua_rawsetp @1793
    lua_readMemFromContext @1794
    lua_resetthread @1795
    lua_resume @1796
    lua_rotate @1797
    lua_setallocf @1798
    lua_setcstacklimit @1799
    lua_setfield @1800
    lua_setglobal @1801
    lua_sethook @1802
    lua_seti @1803
    lua_setiuservalue @1804
    lua_setlocal @1805
    lua_setmetatable @1806
    lua_settable @1807
    lua_settop @1808
    lua_setupvalue @1809
    lua_setwarnf @1810
    lua_splitByteRW @1811
    lua_status @1812
    lua_stringtonumber @1813
    lua_toboolean @1814
    lua_tocfunction @1815
    lua_toclose @1816
    lua_tointegerx @1817
    lua_tolstring @1818
    lua_tonumberx @1819
    lua_topointer @1820
    lua_tothread @1821
    lua_touserdata @1822
    lua_type @1823
    lua_typename @1824
    lua_upvalueid @1825
    lua_upvaluejoin @1826
    lua_version @1827
    lua_warning @1828
    lua_writeMemToContext @1829
    lua_xmove @1830
    lua_yieldk @1831
    luai_ctype_ @1832 DATA
    luaopen_base @1833
    luaopen_coroutine @1834
    luaopen_debug @1835
    luaopen_io @1836
    luaopen_math @1837
    luaopen_os @1838
    luaopen_package @1839
    luaopen_string @1840
    luaopen_table @1841
    luaopen_utf8 @1842
    pthread_attr_destroy @1843
    pthread_attr_getdetachstate @1844
    pthread_attr_getinheritsched @1845
    pthread_attr_getscope @1846
    pthread_attr_getstackaddr @1847
    pthread_attr_getstacksize @1848
    pthread_attr_init @1849
    pthread_attr_setdetachstate @1850
    pthread_attr_setinheritsched @1851
    pthread_attr_setscope @1852
    pthread_attr_setstackaddr @1853
    pthread_attr_setstacksize @1854
    pthread_cancel @1855
    pthread_cond_broadcast @1856
    pthread_cond_destroy @1857
    pthread_cond_init @1858
    pthread_cond_signal @1859
    pthread_cond_timedwait @1860
    pthread_cond_timedwait_relative_np @1861
    pthread_cond_wait @1862
    pthread_condattr_destroy @1863
    pthread_condattr_getclock @1864
    pthread_condattr_getpshared @1865
    pthread_condattr_init @1866
    pthread_condattr_setclock @1867
    pthread_condattr_setpshared @1868
    pthread_create @1869
    pthread_create_wrapper @1870
    pthread_delay_np @1871
    pthread_delay_np_ms @1872
    pthread_detach @1873
    pthread_equal @1874
    pthread_exit @1875
    pthread_get_concurrency @1876
    pthread_getclean @1877
    pthread_getconcurrency @1878
    pthread_getevent @1879
    pthread_gethandle @1880
    pthread_getname_np @1881
    pthread_getspecific @1882
    pthread_join @1883
    pthread_key_create @1884
    pthread_key_delete @1885
    pthread_kill @1886
    pthread_mutex_destroy @1887
    pthread_mutex_init @1888
    pthread_mutex_lock @1889
    pthread_mutex_timedlock @1890
    pthread_mutex_trylock @1891
    pthread_mutex_unlock @1892
    pthread_mutexattr_destroy @1893
    pthread_mutexattr_getprioceiling @1894
    pthread_mutexattr_getprotocol @1895
    pthread_mutexattr_getpshared @1896
    pthread_mutexattr_gettype @1897
    pthread_mutexattr_init @1898
    pthread_mutexattr_setprioceiling @1899
    pthread_mutexattr_setprotocol @1900
    pthread_mutexattr_setpshared @1901
    pthread_mutexattr_settype @1902
    pthread_num_processors_np @1903
    pthread_once @1904
    pthread_rwlock_destroy @1905
    pthread_rwlock_init @1906
    pthread_rwlock_rdlock @1907
    pthread_rwlock_timedrdlock @1908
    pthread_rwlock_timedwrlock @1909
    pthread_rwlock_tryrdlock @1910
    pthread_rwlock_trywrlock @1911
    pthread_rwlock_unlock @1912
    pthread_rwlock_wrlock @1913
    pthread_rwlockattr_destroy @1914
    pthread_rwlockattr_getpshared @1915
    pthread_rwlockattr_init @1916
    pthread_rwlockattr_setpshared @1917
    pthread_self @1918
    pthread_set_concurrency @1919
    pthread_set_num_processors_np @1920
    pthread_setcancelstate @1921
    pthread_setcanceltype @1922
    pthread_setconcurrency @1923
    pthread_setname_np @1924
    pthread_setspecific @1925
    pthread_spin_destroy @1926
    pthread_spin_init @1927
    pthread_spin_lock @1928
    pthread_spin_trylock @1929
    pthread_spin_unlock @1930
    pthread_testcancel @1931
    pthread_timechange_handler_np @1932
    pthread_tls_init @1933
    rwl_print @1934
    rwl_print_set @1935
    thread_print @1936
    thread_print_set @1937
